ARM GAS  /tmp/ccJjbwbP.s 			page 1


   1              		.cpu cortex-m4
   2              		.eabi_attribute 27, 1
   3              		.eabi_attribute 28, 1
   4              		.eabi_attribute 20, 1
   5              		.eabi_attribute 21, 1
   6              		.eabi_attribute 23, 3
   7              		.eabi_attribute 24, 1
   8              		.eabi_attribute 25, 1
   9              		.eabi_attribute 26, 1
  10              		.eabi_attribute 30, 1
  11              		.eabi_attribute 34, 1
  12              		.eabi_attribute 18, 4
  13              		.file	"stm32f4xx_hal_hcd.c"
  14              		.text
  15              	.Ltext0:
  16              		.cfi_sections	.debug_frame
  17              		.section	.text.HCD_RXQLVL_IRQHandler,"ax",%progbits
  18              		.align	1
  19              		.arch armv7e-m
  20              		.syntax unified
  21              		.thumb
  22              		.thumb_func
  23              		.fpu fpv4-sp-d16
  25              	HCD_RXQLVL_IRQHandler:
  26              	.LVL0:
  27              	.LFB156:
  28              		.file 1 "Drivers/STM32F4xx_HAL_Driver/Src/stm32f4xx_hal_hcd.c"
   1:Drivers/STM32F4xx_HAL_Driver/Src/stm32f4xx_hal_hcd.c **** /**
   2:Drivers/STM32F4xx_HAL_Driver/Src/stm32f4xx_hal_hcd.c ****   ******************************************************************************
   3:Drivers/STM32F4xx_HAL_Driver/Src/stm32f4xx_hal_hcd.c ****   * @file    stm32f4xx_hal_hcd.c
   4:Drivers/STM32F4xx_HAL_Driver/Src/stm32f4xx_hal_hcd.c ****   * @author  MCD Application Team
   5:Drivers/STM32F4xx_HAL_Driver/Src/stm32f4xx_hal_hcd.c ****   * @brief   HCD HAL module driver.
   6:Drivers/STM32F4xx_HAL_Driver/Src/stm32f4xx_hal_hcd.c ****   *          This file provides firmware functions to manage the following
   7:Drivers/STM32F4xx_HAL_Driver/Src/stm32f4xx_hal_hcd.c ****   *          functionalities of the USB Peripheral Controller:
   8:Drivers/STM32F4xx_HAL_Driver/Src/stm32f4xx_hal_hcd.c ****   *           + Initialization and de-initialization functions
   9:Drivers/STM32F4xx_HAL_Driver/Src/stm32f4xx_hal_hcd.c ****   *           + IO operation functions
  10:Drivers/STM32F4xx_HAL_Driver/Src/stm32f4xx_hal_hcd.c ****   *           + Peripheral Control functions
  11:Drivers/STM32F4xx_HAL_Driver/Src/stm32f4xx_hal_hcd.c ****   *           + Peripheral State functions
  12:Drivers/STM32F4xx_HAL_Driver/Src/stm32f4xx_hal_hcd.c ****   *
  13:Drivers/STM32F4xx_HAL_Driver/Src/stm32f4xx_hal_hcd.c ****   @verbatim
  14:Drivers/STM32F4xx_HAL_Driver/Src/stm32f4xx_hal_hcd.c ****   ==============================================================================
  15:Drivers/STM32F4xx_HAL_Driver/Src/stm32f4xx_hal_hcd.c ****                     ##### How to use this driver #####
  16:Drivers/STM32F4xx_HAL_Driver/Src/stm32f4xx_hal_hcd.c ****   ==============================================================================
  17:Drivers/STM32F4xx_HAL_Driver/Src/stm32f4xx_hal_hcd.c ****   [..]
  18:Drivers/STM32F4xx_HAL_Driver/Src/stm32f4xx_hal_hcd.c ****     (#)Declare a HCD_HandleTypeDef handle structure, for example:
  19:Drivers/STM32F4xx_HAL_Driver/Src/stm32f4xx_hal_hcd.c ****        HCD_HandleTypeDef  hhcd;
  20:Drivers/STM32F4xx_HAL_Driver/Src/stm32f4xx_hal_hcd.c **** 
  21:Drivers/STM32F4xx_HAL_Driver/Src/stm32f4xx_hal_hcd.c ****     (#)Fill parameters of Init structure in HCD handle
  22:Drivers/STM32F4xx_HAL_Driver/Src/stm32f4xx_hal_hcd.c **** 
  23:Drivers/STM32F4xx_HAL_Driver/Src/stm32f4xx_hal_hcd.c ****     (#)Call HAL_HCD_Init() API to initialize the HCD peripheral (Core, Host core, ...)
  24:Drivers/STM32F4xx_HAL_Driver/Src/stm32f4xx_hal_hcd.c **** 
  25:Drivers/STM32F4xx_HAL_Driver/Src/stm32f4xx_hal_hcd.c ****     (#)Initialize the HCD low level resources through the HAL_HCD_MspInit() API:
  26:Drivers/STM32F4xx_HAL_Driver/Src/stm32f4xx_hal_hcd.c ****         (##) Enable the HCD/USB Low Level interface clock using the following macros
  27:Drivers/STM32F4xx_HAL_Driver/Src/stm32f4xx_hal_hcd.c ****              (+++) __HAL_RCC_USB_OTG_FS_CLK_ENABLE();
  28:Drivers/STM32F4xx_HAL_Driver/Src/stm32f4xx_hal_hcd.c ****              (+++) __HAL_RCC_USB_OTG_HS_CLK_ENABLE(); (For High Speed Mode)
  29:Drivers/STM32F4xx_HAL_Driver/Src/stm32f4xx_hal_hcd.c ****              (+++) __HAL_RCC_USB_OTG_HS_ULPI_CLK_ENABLE(); (For High Speed Mode)
  30:Drivers/STM32F4xx_HAL_Driver/Src/stm32f4xx_hal_hcd.c **** 
ARM GAS  /tmp/ccJjbwbP.s 			page 2


  31:Drivers/STM32F4xx_HAL_Driver/Src/stm32f4xx_hal_hcd.c ****         (##) Initialize the related GPIO clocks
  32:Drivers/STM32F4xx_HAL_Driver/Src/stm32f4xx_hal_hcd.c ****         (##) Configure HCD pin-out
  33:Drivers/STM32F4xx_HAL_Driver/Src/stm32f4xx_hal_hcd.c ****         (##) Configure HCD NVIC interrupt
  34:Drivers/STM32F4xx_HAL_Driver/Src/stm32f4xx_hal_hcd.c **** 
  35:Drivers/STM32F4xx_HAL_Driver/Src/stm32f4xx_hal_hcd.c ****     (#)Associate the Upper USB Host stack to the HAL HCD Driver:
  36:Drivers/STM32F4xx_HAL_Driver/Src/stm32f4xx_hal_hcd.c ****         (##) hhcd.pData = phost;
  37:Drivers/STM32F4xx_HAL_Driver/Src/stm32f4xx_hal_hcd.c **** 
  38:Drivers/STM32F4xx_HAL_Driver/Src/stm32f4xx_hal_hcd.c ****     (#)Enable HCD transmission and reception:
  39:Drivers/STM32F4xx_HAL_Driver/Src/stm32f4xx_hal_hcd.c ****         (##) HAL_HCD_Start();
  40:Drivers/STM32F4xx_HAL_Driver/Src/stm32f4xx_hal_hcd.c **** 
  41:Drivers/STM32F4xx_HAL_Driver/Src/stm32f4xx_hal_hcd.c ****   @endverbatim
  42:Drivers/STM32F4xx_HAL_Driver/Src/stm32f4xx_hal_hcd.c ****   ******************************************************************************
  43:Drivers/STM32F4xx_HAL_Driver/Src/stm32f4xx_hal_hcd.c ****   * @attention
  44:Drivers/STM32F4xx_HAL_Driver/Src/stm32f4xx_hal_hcd.c ****   *
  45:Drivers/STM32F4xx_HAL_Driver/Src/stm32f4xx_hal_hcd.c ****   * <h2><center>&copy; Copyright (c) 2016 STMicroelectronics.
  46:Drivers/STM32F4xx_HAL_Driver/Src/stm32f4xx_hal_hcd.c ****   * All rights reserved.</center></h2>
  47:Drivers/STM32F4xx_HAL_Driver/Src/stm32f4xx_hal_hcd.c ****   *
  48:Drivers/STM32F4xx_HAL_Driver/Src/stm32f4xx_hal_hcd.c ****   * This software component is licensed by ST under BSD 3-Clause license,
  49:Drivers/STM32F4xx_HAL_Driver/Src/stm32f4xx_hal_hcd.c ****   * the "License"; You may not use this file except in compliance with the
  50:Drivers/STM32F4xx_HAL_Driver/Src/stm32f4xx_hal_hcd.c ****   * License. You may obtain a copy of the License at:
  51:Drivers/STM32F4xx_HAL_Driver/Src/stm32f4xx_hal_hcd.c ****   *                        opensource.org/licenses/BSD-3-Clause
  52:Drivers/STM32F4xx_HAL_Driver/Src/stm32f4xx_hal_hcd.c ****   *
  53:Drivers/STM32F4xx_HAL_Driver/Src/stm32f4xx_hal_hcd.c ****   ******************************************************************************
  54:Drivers/STM32F4xx_HAL_Driver/Src/stm32f4xx_hal_hcd.c ****   */
  55:Drivers/STM32F4xx_HAL_Driver/Src/stm32f4xx_hal_hcd.c **** 
  56:Drivers/STM32F4xx_HAL_Driver/Src/stm32f4xx_hal_hcd.c **** /* Includes ------------------------------------------------------------------*/
  57:Drivers/STM32F4xx_HAL_Driver/Src/stm32f4xx_hal_hcd.c **** #include "stm32f4xx_hal.h"
  58:Drivers/STM32F4xx_HAL_Driver/Src/stm32f4xx_hal_hcd.c **** 
  59:Drivers/STM32F4xx_HAL_Driver/Src/stm32f4xx_hal_hcd.c **** /** @addtogroup STM32F4xx_HAL_Driver
  60:Drivers/STM32F4xx_HAL_Driver/Src/stm32f4xx_hal_hcd.c ****   * @{
  61:Drivers/STM32F4xx_HAL_Driver/Src/stm32f4xx_hal_hcd.c ****   */
  62:Drivers/STM32F4xx_HAL_Driver/Src/stm32f4xx_hal_hcd.c **** 
  63:Drivers/STM32F4xx_HAL_Driver/Src/stm32f4xx_hal_hcd.c **** #ifdef HAL_HCD_MODULE_ENABLED
  64:Drivers/STM32F4xx_HAL_Driver/Src/stm32f4xx_hal_hcd.c **** 
  65:Drivers/STM32F4xx_HAL_Driver/Src/stm32f4xx_hal_hcd.c **** #if defined (USB_OTG_FS) || defined (USB_OTG_HS)
  66:Drivers/STM32F4xx_HAL_Driver/Src/stm32f4xx_hal_hcd.c **** 
  67:Drivers/STM32F4xx_HAL_Driver/Src/stm32f4xx_hal_hcd.c **** /** @defgroup HCD HCD
  68:Drivers/STM32F4xx_HAL_Driver/Src/stm32f4xx_hal_hcd.c ****   * @brief HCD HAL module driver
  69:Drivers/STM32F4xx_HAL_Driver/Src/stm32f4xx_hal_hcd.c ****   * @{
  70:Drivers/STM32F4xx_HAL_Driver/Src/stm32f4xx_hal_hcd.c ****   */
  71:Drivers/STM32F4xx_HAL_Driver/Src/stm32f4xx_hal_hcd.c **** 
  72:Drivers/STM32F4xx_HAL_Driver/Src/stm32f4xx_hal_hcd.c **** /* Private typedef -----------------------------------------------------------*/
  73:Drivers/STM32F4xx_HAL_Driver/Src/stm32f4xx_hal_hcd.c **** /* Private define ------------------------------------------------------------*/
  74:Drivers/STM32F4xx_HAL_Driver/Src/stm32f4xx_hal_hcd.c **** /* Private macro -------------------------------------------------------------*/
  75:Drivers/STM32F4xx_HAL_Driver/Src/stm32f4xx_hal_hcd.c **** /* Private variables ---------------------------------------------------------*/
  76:Drivers/STM32F4xx_HAL_Driver/Src/stm32f4xx_hal_hcd.c **** /* Private function prototypes -----------------------------------------------*/
  77:Drivers/STM32F4xx_HAL_Driver/Src/stm32f4xx_hal_hcd.c **** /** @defgroup HCD_Private_Functions HCD Private Functions
  78:Drivers/STM32F4xx_HAL_Driver/Src/stm32f4xx_hal_hcd.c ****   * @{
  79:Drivers/STM32F4xx_HAL_Driver/Src/stm32f4xx_hal_hcd.c ****   */
  80:Drivers/STM32F4xx_HAL_Driver/Src/stm32f4xx_hal_hcd.c **** static void HCD_HC_IN_IRQHandler(HCD_HandleTypeDef *hhcd, uint8_t chnum);
  81:Drivers/STM32F4xx_HAL_Driver/Src/stm32f4xx_hal_hcd.c **** static void HCD_HC_OUT_IRQHandler(HCD_HandleTypeDef *hhcd, uint8_t chnum);
  82:Drivers/STM32F4xx_HAL_Driver/Src/stm32f4xx_hal_hcd.c **** static void HCD_RXQLVL_IRQHandler(HCD_HandleTypeDef *hhcd);
  83:Drivers/STM32F4xx_HAL_Driver/Src/stm32f4xx_hal_hcd.c **** static void HCD_Port_IRQHandler(HCD_HandleTypeDef *hhcd);
  84:Drivers/STM32F4xx_HAL_Driver/Src/stm32f4xx_hal_hcd.c **** /**
  85:Drivers/STM32F4xx_HAL_Driver/Src/stm32f4xx_hal_hcd.c ****   * @}
  86:Drivers/STM32F4xx_HAL_Driver/Src/stm32f4xx_hal_hcd.c ****   */
  87:Drivers/STM32F4xx_HAL_Driver/Src/stm32f4xx_hal_hcd.c **** 
ARM GAS  /tmp/ccJjbwbP.s 			page 3


  88:Drivers/STM32F4xx_HAL_Driver/Src/stm32f4xx_hal_hcd.c **** /* Exported functions --------------------------------------------------------*/
  89:Drivers/STM32F4xx_HAL_Driver/Src/stm32f4xx_hal_hcd.c **** /** @defgroup HCD_Exported_Functions HCD Exported Functions
  90:Drivers/STM32F4xx_HAL_Driver/Src/stm32f4xx_hal_hcd.c ****   * @{
  91:Drivers/STM32F4xx_HAL_Driver/Src/stm32f4xx_hal_hcd.c ****   */
  92:Drivers/STM32F4xx_HAL_Driver/Src/stm32f4xx_hal_hcd.c **** 
  93:Drivers/STM32F4xx_HAL_Driver/Src/stm32f4xx_hal_hcd.c **** /** @defgroup HCD_Exported_Functions_Group1 Initialization and de-initialization functions
  94:Drivers/STM32F4xx_HAL_Driver/Src/stm32f4xx_hal_hcd.c ****   *  @brief    Initialization and Configuration functions
  95:Drivers/STM32F4xx_HAL_Driver/Src/stm32f4xx_hal_hcd.c ****   *
  96:Drivers/STM32F4xx_HAL_Driver/Src/stm32f4xx_hal_hcd.c **** @verbatim
  97:Drivers/STM32F4xx_HAL_Driver/Src/stm32f4xx_hal_hcd.c ****  ===============================================================================
  98:Drivers/STM32F4xx_HAL_Driver/Src/stm32f4xx_hal_hcd.c ****           ##### Initialization and de-initialization functions #####
  99:Drivers/STM32F4xx_HAL_Driver/Src/stm32f4xx_hal_hcd.c ****  ===============================================================================
 100:Drivers/STM32F4xx_HAL_Driver/Src/stm32f4xx_hal_hcd.c ****     [..]  This section provides functions allowing to:
 101:Drivers/STM32F4xx_HAL_Driver/Src/stm32f4xx_hal_hcd.c **** 
 102:Drivers/STM32F4xx_HAL_Driver/Src/stm32f4xx_hal_hcd.c **** @endverbatim
 103:Drivers/STM32F4xx_HAL_Driver/Src/stm32f4xx_hal_hcd.c ****   * @{
 104:Drivers/STM32F4xx_HAL_Driver/Src/stm32f4xx_hal_hcd.c ****   */
 105:Drivers/STM32F4xx_HAL_Driver/Src/stm32f4xx_hal_hcd.c **** 
 106:Drivers/STM32F4xx_HAL_Driver/Src/stm32f4xx_hal_hcd.c **** /**
 107:Drivers/STM32F4xx_HAL_Driver/Src/stm32f4xx_hal_hcd.c ****   * @brief  Initialize the host driver.
 108:Drivers/STM32F4xx_HAL_Driver/Src/stm32f4xx_hal_hcd.c ****   * @param  hhcd HCD handle
 109:Drivers/STM32F4xx_HAL_Driver/Src/stm32f4xx_hal_hcd.c ****   * @retval HAL status
 110:Drivers/STM32F4xx_HAL_Driver/Src/stm32f4xx_hal_hcd.c ****   */
 111:Drivers/STM32F4xx_HAL_Driver/Src/stm32f4xx_hal_hcd.c **** HAL_StatusTypeDef HAL_HCD_Init(HCD_HandleTypeDef *hhcd)
 112:Drivers/STM32F4xx_HAL_Driver/Src/stm32f4xx_hal_hcd.c **** {
 113:Drivers/STM32F4xx_HAL_Driver/Src/stm32f4xx_hal_hcd.c ****   USB_OTG_GlobalTypeDef *USBx;
 114:Drivers/STM32F4xx_HAL_Driver/Src/stm32f4xx_hal_hcd.c **** 
 115:Drivers/STM32F4xx_HAL_Driver/Src/stm32f4xx_hal_hcd.c ****   /* Check the HCD handle allocation */
 116:Drivers/STM32F4xx_HAL_Driver/Src/stm32f4xx_hal_hcd.c ****   if (hhcd == NULL)
 117:Drivers/STM32F4xx_HAL_Driver/Src/stm32f4xx_hal_hcd.c ****   {
 118:Drivers/STM32F4xx_HAL_Driver/Src/stm32f4xx_hal_hcd.c ****     return HAL_ERROR;
 119:Drivers/STM32F4xx_HAL_Driver/Src/stm32f4xx_hal_hcd.c ****   }
 120:Drivers/STM32F4xx_HAL_Driver/Src/stm32f4xx_hal_hcd.c **** 
 121:Drivers/STM32F4xx_HAL_Driver/Src/stm32f4xx_hal_hcd.c ****   /* Check the parameters */
 122:Drivers/STM32F4xx_HAL_Driver/Src/stm32f4xx_hal_hcd.c ****   assert_param(IS_HCD_ALL_INSTANCE(hhcd->Instance));
 123:Drivers/STM32F4xx_HAL_Driver/Src/stm32f4xx_hal_hcd.c **** 
 124:Drivers/STM32F4xx_HAL_Driver/Src/stm32f4xx_hal_hcd.c ****   USBx = hhcd->Instance;
 125:Drivers/STM32F4xx_HAL_Driver/Src/stm32f4xx_hal_hcd.c **** 
 126:Drivers/STM32F4xx_HAL_Driver/Src/stm32f4xx_hal_hcd.c ****   if (hhcd->State == HAL_HCD_STATE_RESET)
 127:Drivers/STM32F4xx_HAL_Driver/Src/stm32f4xx_hal_hcd.c ****   {
 128:Drivers/STM32F4xx_HAL_Driver/Src/stm32f4xx_hal_hcd.c ****     /* Allocate lock resource and initialize it */
 129:Drivers/STM32F4xx_HAL_Driver/Src/stm32f4xx_hal_hcd.c ****     hhcd->Lock = HAL_UNLOCKED;
 130:Drivers/STM32F4xx_HAL_Driver/Src/stm32f4xx_hal_hcd.c **** 
 131:Drivers/STM32F4xx_HAL_Driver/Src/stm32f4xx_hal_hcd.c **** #if (USE_HAL_HCD_REGISTER_CALLBACKS == 1U)
 132:Drivers/STM32F4xx_HAL_Driver/Src/stm32f4xx_hal_hcd.c ****     hhcd->SOFCallback = HAL_HCD_SOF_Callback;
 133:Drivers/STM32F4xx_HAL_Driver/Src/stm32f4xx_hal_hcd.c ****     hhcd->ConnectCallback = HAL_HCD_Connect_Callback;
 134:Drivers/STM32F4xx_HAL_Driver/Src/stm32f4xx_hal_hcd.c ****     hhcd->DisconnectCallback = HAL_HCD_Disconnect_Callback;
 135:Drivers/STM32F4xx_HAL_Driver/Src/stm32f4xx_hal_hcd.c ****     hhcd->PortEnabledCallback = HAL_HCD_PortEnabled_Callback;
 136:Drivers/STM32F4xx_HAL_Driver/Src/stm32f4xx_hal_hcd.c ****     hhcd->PortDisabledCallback = HAL_HCD_PortDisabled_Callback;
 137:Drivers/STM32F4xx_HAL_Driver/Src/stm32f4xx_hal_hcd.c ****     hhcd->HC_NotifyURBChangeCallback = HAL_HCD_HC_NotifyURBChange_Callback;
 138:Drivers/STM32F4xx_HAL_Driver/Src/stm32f4xx_hal_hcd.c **** 
 139:Drivers/STM32F4xx_HAL_Driver/Src/stm32f4xx_hal_hcd.c ****     if (hhcd->MspInitCallback == NULL)
 140:Drivers/STM32F4xx_HAL_Driver/Src/stm32f4xx_hal_hcd.c ****     {
 141:Drivers/STM32F4xx_HAL_Driver/Src/stm32f4xx_hal_hcd.c ****       hhcd->MspInitCallback = HAL_HCD_MspInit;
 142:Drivers/STM32F4xx_HAL_Driver/Src/stm32f4xx_hal_hcd.c ****     }
 143:Drivers/STM32F4xx_HAL_Driver/Src/stm32f4xx_hal_hcd.c **** 
 144:Drivers/STM32F4xx_HAL_Driver/Src/stm32f4xx_hal_hcd.c ****     /* Init the low level hardware */
ARM GAS  /tmp/ccJjbwbP.s 			page 4


 145:Drivers/STM32F4xx_HAL_Driver/Src/stm32f4xx_hal_hcd.c ****     hhcd->MspInitCallback(hhcd);
 146:Drivers/STM32F4xx_HAL_Driver/Src/stm32f4xx_hal_hcd.c **** #else
 147:Drivers/STM32F4xx_HAL_Driver/Src/stm32f4xx_hal_hcd.c ****     /* Init the low level hardware : GPIO, CLOCK, NVIC... */
 148:Drivers/STM32F4xx_HAL_Driver/Src/stm32f4xx_hal_hcd.c ****     HAL_HCD_MspInit(hhcd);
 149:Drivers/STM32F4xx_HAL_Driver/Src/stm32f4xx_hal_hcd.c **** #endif /* (USE_HAL_HCD_REGISTER_CALLBACKS) */
 150:Drivers/STM32F4xx_HAL_Driver/Src/stm32f4xx_hal_hcd.c ****   }
 151:Drivers/STM32F4xx_HAL_Driver/Src/stm32f4xx_hal_hcd.c **** 
 152:Drivers/STM32F4xx_HAL_Driver/Src/stm32f4xx_hal_hcd.c ****   hhcd->State = HAL_HCD_STATE_BUSY;
 153:Drivers/STM32F4xx_HAL_Driver/Src/stm32f4xx_hal_hcd.c **** 
 154:Drivers/STM32F4xx_HAL_Driver/Src/stm32f4xx_hal_hcd.c ****   /* Disable DMA mode for FS instance */
 155:Drivers/STM32F4xx_HAL_Driver/Src/stm32f4xx_hal_hcd.c ****   if ((USBx->CID & (0x1U << 8)) == 0U)
 156:Drivers/STM32F4xx_HAL_Driver/Src/stm32f4xx_hal_hcd.c ****   {
 157:Drivers/STM32F4xx_HAL_Driver/Src/stm32f4xx_hal_hcd.c ****     hhcd->Init.dma_enable = 0U;
 158:Drivers/STM32F4xx_HAL_Driver/Src/stm32f4xx_hal_hcd.c ****   }
 159:Drivers/STM32F4xx_HAL_Driver/Src/stm32f4xx_hal_hcd.c **** 
 160:Drivers/STM32F4xx_HAL_Driver/Src/stm32f4xx_hal_hcd.c ****   /* Disable the Interrupts */
 161:Drivers/STM32F4xx_HAL_Driver/Src/stm32f4xx_hal_hcd.c ****   __HAL_HCD_DISABLE(hhcd);
 162:Drivers/STM32F4xx_HAL_Driver/Src/stm32f4xx_hal_hcd.c **** 
 163:Drivers/STM32F4xx_HAL_Driver/Src/stm32f4xx_hal_hcd.c ****   /* Init the Core (common init.) */
 164:Drivers/STM32F4xx_HAL_Driver/Src/stm32f4xx_hal_hcd.c ****   (void)USB_CoreInit(hhcd->Instance, hhcd->Init);
 165:Drivers/STM32F4xx_HAL_Driver/Src/stm32f4xx_hal_hcd.c **** 
 166:Drivers/STM32F4xx_HAL_Driver/Src/stm32f4xx_hal_hcd.c ****   /* Force Host Mode*/
 167:Drivers/STM32F4xx_HAL_Driver/Src/stm32f4xx_hal_hcd.c ****   (void)USB_SetCurrentMode(hhcd->Instance, USB_HOST_MODE);
 168:Drivers/STM32F4xx_HAL_Driver/Src/stm32f4xx_hal_hcd.c **** 
 169:Drivers/STM32F4xx_HAL_Driver/Src/stm32f4xx_hal_hcd.c ****   /* Init Host */
 170:Drivers/STM32F4xx_HAL_Driver/Src/stm32f4xx_hal_hcd.c ****   (void)USB_HostInit(hhcd->Instance, hhcd->Init);
 171:Drivers/STM32F4xx_HAL_Driver/Src/stm32f4xx_hal_hcd.c **** 
 172:Drivers/STM32F4xx_HAL_Driver/Src/stm32f4xx_hal_hcd.c ****   hhcd->State = HAL_HCD_STATE_READY;
 173:Drivers/STM32F4xx_HAL_Driver/Src/stm32f4xx_hal_hcd.c **** 
 174:Drivers/STM32F4xx_HAL_Driver/Src/stm32f4xx_hal_hcd.c ****   return HAL_OK;
 175:Drivers/STM32F4xx_HAL_Driver/Src/stm32f4xx_hal_hcd.c **** }
 176:Drivers/STM32F4xx_HAL_Driver/Src/stm32f4xx_hal_hcd.c **** 
 177:Drivers/STM32F4xx_HAL_Driver/Src/stm32f4xx_hal_hcd.c **** /**
 178:Drivers/STM32F4xx_HAL_Driver/Src/stm32f4xx_hal_hcd.c ****   * @brief  Initialize a host channel.
 179:Drivers/STM32F4xx_HAL_Driver/Src/stm32f4xx_hal_hcd.c ****   * @param  hhcd HCD handle
 180:Drivers/STM32F4xx_HAL_Driver/Src/stm32f4xx_hal_hcd.c ****   * @param  ch_num Channel number.
 181:Drivers/STM32F4xx_HAL_Driver/Src/stm32f4xx_hal_hcd.c ****   *         This parameter can be a value from 1 to 15
 182:Drivers/STM32F4xx_HAL_Driver/Src/stm32f4xx_hal_hcd.c ****   * @param  epnum Endpoint number.
 183:Drivers/STM32F4xx_HAL_Driver/Src/stm32f4xx_hal_hcd.c ****   *          This parameter can be a value from 1 to 15
 184:Drivers/STM32F4xx_HAL_Driver/Src/stm32f4xx_hal_hcd.c ****   * @param  dev_address Current device address
 185:Drivers/STM32F4xx_HAL_Driver/Src/stm32f4xx_hal_hcd.c ****   *          This parameter can be a value from 0 to 255
 186:Drivers/STM32F4xx_HAL_Driver/Src/stm32f4xx_hal_hcd.c ****   * @param  speed Current device speed.
 187:Drivers/STM32F4xx_HAL_Driver/Src/stm32f4xx_hal_hcd.c ****   *          This parameter can be one of these values:
 188:Drivers/STM32F4xx_HAL_Driver/Src/stm32f4xx_hal_hcd.c ****   *            HCD_SPEED_HIGH: High speed mode,
 189:Drivers/STM32F4xx_HAL_Driver/Src/stm32f4xx_hal_hcd.c ****   *            HCD_SPEED_FULL: Full speed mode,
 190:Drivers/STM32F4xx_HAL_Driver/Src/stm32f4xx_hal_hcd.c ****   *            HCD_SPEED_LOW: Low speed mode
 191:Drivers/STM32F4xx_HAL_Driver/Src/stm32f4xx_hal_hcd.c ****   * @param  ep_type Endpoint Type.
 192:Drivers/STM32F4xx_HAL_Driver/Src/stm32f4xx_hal_hcd.c ****   *          This parameter can be one of these values:
 193:Drivers/STM32F4xx_HAL_Driver/Src/stm32f4xx_hal_hcd.c ****   *            EP_TYPE_CTRL: Control type,
 194:Drivers/STM32F4xx_HAL_Driver/Src/stm32f4xx_hal_hcd.c ****   *            EP_TYPE_ISOC: Isochronous type,
 195:Drivers/STM32F4xx_HAL_Driver/Src/stm32f4xx_hal_hcd.c ****   *            EP_TYPE_BULK: Bulk type,
 196:Drivers/STM32F4xx_HAL_Driver/Src/stm32f4xx_hal_hcd.c ****   *            EP_TYPE_INTR: Interrupt type
 197:Drivers/STM32F4xx_HAL_Driver/Src/stm32f4xx_hal_hcd.c ****   * @param  mps Max Packet Size.
 198:Drivers/STM32F4xx_HAL_Driver/Src/stm32f4xx_hal_hcd.c ****   *          This parameter can be a value from 0 to32K
 199:Drivers/STM32F4xx_HAL_Driver/Src/stm32f4xx_hal_hcd.c ****   * @retval HAL status
 200:Drivers/STM32F4xx_HAL_Driver/Src/stm32f4xx_hal_hcd.c ****   */
 201:Drivers/STM32F4xx_HAL_Driver/Src/stm32f4xx_hal_hcd.c **** HAL_StatusTypeDef HAL_HCD_HC_Init(HCD_HandleTypeDef *hhcd,
ARM GAS  /tmp/ccJjbwbP.s 			page 5


 202:Drivers/STM32F4xx_HAL_Driver/Src/stm32f4xx_hal_hcd.c ****                                   uint8_t ch_num,
 203:Drivers/STM32F4xx_HAL_Driver/Src/stm32f4xx_hal_hcd.c ****                                   uint8_t epnum,
 204:Drivers/STM32F4xx_HAL_Driver/Src/stm32f4xx_hal_hcd.c ****                                   uint8_t dev_address,
 205:Drivers/STM32F4xx_HAL_Driver/Src/stm32f4xx_hal_hcd.c ****                                   uint8_t speed,
 206:Drivers/STM32F4xx_HAL_Driver/Src/stm32f4xx_hal_hcd.c ****                                   uint8_t ep_type,
 207:Drivers/STM32F4xx_HAL_Driver/Src/stm32f4xx_hal_hcd.c ****                                   uint16_t mps)
 208:Drivers/STM32F4xx_HAL_Driver/Src/stm32f4xx_hal_hcd.c **** {
 209:Drivers/STM32F4xx_HAL_Driver/Src/stm32f4xx_hal_hcd.c ****   HAL_StatusTypeDef status;
 210:Drivers/STM32F4xx_HAL_Driver/Src/stm32f4xx_hal_hcd.c **** 
 211:Drivers/STM32F4xx_HAL_Driver/Src/stm32f4xx_hal_hcd.c ****   __HAL_LOCK(hhcd);
 212:Drivers/STM32F4xx_HAL_Driver/Src/stm32f4xx_hal_hcd.c ****   hhcd->hc[ch_num].do_ping = 0U;
 213:Drivers/STM32F4xx_HAL_Driver/Src/stm32f4xx_hal_hcd.c ****   hhcd->hc[ch_num].dev_addr = dev_address;
 214:Drivers/STM32F4xx_HAL_Driver/Src/stm32f4xx_hal_hcd.c ****   hhcd->hc[ch_num].max_packet = mps;
 215:Drivers/STM32F4xx_HAL_Driver/Src/stm32f4xx_hal_hcd.c ****   hhcd->hc[ch_num].ch_num = ch_num;
 216:Drivers/STM32F4xx_HAL_Driver/Src/stm32f4xx_hal_hcd.c ****   hhcd->hc[ch_num].ep_type = ep_type;
 217:Drivers/STM32F4xx_HAL_Driver/Src/stm32f4xx_hal_hcd.c ****   hhcd->hc[ch_num].ep_num = epnum & 0x7FU;
 218:Drivers/STM32F4xx_HAL_Driver/Src/stm32f4xx_hal_hcd.c **** 
 219:Drivers/STM32F4xx_HAL_Driver/Src/stm32f4xx_hal_hcd.c ****   if ((epnum & 0x80U) == 0x80U)
 220:Drivers/STM32F4xx_HAL_Driver/Src/stm32f4xx_hal_hcd.c ****   {
 221:Drivers/STM32F4xx_HAL_Driver/Src/stm32f4xx_hal_hcd.c ****     hhcd->hc[ch_num].ep_is_in = 1U;
 222:Drivers/STM32F4xx_HAL_Driver/Src/stm32f4xx_hal_hcd.c ****   }
 223:Drivers/STM32F4xx_HAL_Driver/Src/stm32f4xx_hal_hcd.c ****   else
 224:Drivers/STM32F4xx_HAL_Driver/Src/stm32f4xx_hal_hcd.c ****   {
 225:Drivers/STM32F4xx_HAL_Driver/Src/stm32f4xx_hal_hcd.c ****     hhcd->hc[ch_num].ep_is_in = 0U;
 226:Drivers/STM32F4xx_HAL_Driver/Src/stm32f4xx_hal_hcd.c ****   }
 227:Drivers/STM32F4xx_HAL_Driver/Src/stm32f4xx_hal_hcd.c **** 
 228:Drivers/STM32F4xx_HAL_Driver/Src/stm32f4xx_hal_hcd.c ****   hhcd->hc[ch_num].speed = speed;
 229:Drivers/STM32F4xx_HAL_Driver/Src/stm32f4xx_hal_hcd.c **** 
 230:Drivers/STM32F4xx_HAL_Driver/Src/stm32f4xx_hal_hcd.c ****   status =  USB_HC_Init(hhcd->Instance,
 231:Drivers/STM32F4xx_HAL_Driver/Src/stm32f4xx_hal_hcd.c ****                         ch_num,
 232:Drivers/STM32F4xx_HAL_Driver/Src/stm32f4xx_hal_hcd.c ****                         epnum,
 233:Drivers/STM32F4xx_HAL_Driver/Src/stm32f4xx_hal_hcd.c ****                         dev_address,
 234:Drivers/STM32F4xx_HAL_Driver/Src/stm32f4xx_hal_hcd.c ****                         speed,
 235:Drivers/STM32F4xx_HAL_Driver/Src/stm32f4xx_hal_hcd.c ****                         ep_type,
 236:Drivers/STM32F4xx_HAL_Driver/Src/stm32f4xx_hal_hcd.c ****                         mps);
 237:Drivers/STM32F4xx_HAL_Driver/Src/stm32f4xx_hal_hcd.c ****   __HAL_UNLOCK(hhcd);
 238:Drivers/STM32F4xx_HAL_Driver/Src/stm32f4xx_hal_hcd.c **** 
 239:Drivers/STM32F4xx_HAL_Driver/Src/stm32f4xx_hal_hcd.c ****   return status;
 240:Drivers/STM32F4xx_HAL_Driver/Src/stm32f4xx_hal_hcd.c **** }
 241:Drivers/STM32F4xx_HAL_Driver/Src/stm32f4xx_hal_hcd.c **** 
 242:Drivers/STM32F4xx_HAL_Driver/Src/stm32f4xx_hal_hcd.c **** /**
 243:Drivers/STM32F4xx_HAL_Driver/Src/stm32f4xx_hal_hcd.c ****   * @brief  Halt a host channel.
 244:Drivers/STM32F4xx_HAL_Driver/Src/stm32f4xx_hal_hcd.c ****   * @param  hhcd HCD handle
 245:Drivers/STM32F4xx_HAL_Driver/Src/stm32f4xx_hal_hcd.c ****   * @param  ch_num Channel number.
 246:Drivers/STM32F4xx_HAL_Driver/Src/stm32f4xx_hal_hcd.c ****   *         This parameter can be a value from 1 to 15
 247:Drivers/STM32F4xx_HAL_Driver/Src/stm32f4xx_hal_hcd.c ****   * @retval HAL status
 248:Drivers/STM32F4xx_HAL_Driver/Src/stm32f4xx_hal_hcd.c ****   */
 249:Drivers/STM32F4xx_HAL_Driver/Src/stm32f4xx_hal_hcd.c **** HAL_StatusTypeDef HAL_HCD_HC_Halt(HCD_HandleTypeDef *hhcd, uint8_t ch_num)
 250:Drivers/STM32F4xx_HAL_Driver/Src/stm32f4xx_hal_hcd.c **** {
 251:Drivers/STM32F4xx_HAL_Driver/Src/stm32f4xx_hal_hcd.c ****   HAL_StatusTypeDef status = HAL_OK;
 252:Drivers/STM32F4xx_HAL_Driver/Src/stm32f4xx_hal_hcd.c **** 
 253:Drivers/STM32F4xx_HAL_Driver/Src/stm32f4xx_hal_hcd.c ****   __HAL_LOCK(hhcd);
 254:Drivers/STM32F4xx_HAL_Driver/Src/stm32f4xx_hal_hcd.c ****   (void)USB_HC_Halt(hhcd->Instance, (uint8_t)ch_num);
 255:Drivers/STM32F4xx_HAL_Driver/Src/stm32f4xx_hal_hcd.c ****   __HAL_UNLOCK(hhcd);
 256:Drivers/STM32F4xx_HAL_Driver/Src/stm32f4xx_hal_hcd.c **** 
 257:Drivers/STM32F4xx_HAL_Driver/Src/stm32f4xx_hal_hcd.c ****   return status;
 258:Drivers/STM32F4xx_HAL_Driver/Src/stm32f4xx_hal_hcd.c **** }
ARM GAS  /tmp/ccJjbwbP.s 			page 6


 259:Drivers/STM32F4xx_HAL_Driver/Src/stm32f4xx_hal_hcd.c **** 
 260:Drivers/STM32F4xx_HAL_Driver/Src/stm32f4xx_hal_hcd.c **** /**
 261:Drivers/STM32F4xx_HAL_Driver/Src/stm32f4xx_hal_hcd.c ****   * @brief  DeInitialize the host driver.
 262:Drivers/STM32F4xx_HAL_Driver/Src/stm32f4xx_hal_hcd.c ****   * @param  hhcd HCD handle
 263:Drivers/STM32F4xx_HAL_Driver/Src/stm32f4xx_hal_hcd.c ****   * @retval HAL status
 264:Drivers/STM32F4xx_HAL_Driver/Src/stm32f4xx_hal_hcd.c ****   */
 265:Drivers/STM32F4xx_HAL_Driver/Src/stm32f4xx_hal_hcd.c **** HAL_StatusTypeDef HAL_HCD_DeInit(HCD_HandleTypeDef *hhcd)
 266:Drivers/STM32F4xx_HAL_Driver/Src/stm32f4xx_hal_hcd.c **** {
 267:Drivers/STM32F4xx_HAL_Driver/Src/stm32f4xx_hal_hcd.c ****   /* Check the HCD handle allocation */
 268:Drivers/STM32F4xx_HAL_Driver/Src/stm32f4xx_hal_hcd.c ****   if (hhcd == NULL)
 269:Drivers/STM32F4xx_HAL_Driver/Src/stm32f4xx_hal_hcd.c ****   {
 270:Drivers/STM32F4xx_HAL_Driver/Src/stm32f4xx_hal_hcd.c ****     return HAL_ERROR;
 271:Drivers/STM32F4xx_HAL_Driver/Src/stm32f4xx_hal_hcd.c ****   }
 272:Drivers/STM32F4xx_HAL_Driver/Src/stm32f4xx_hal_hcd.c **** 
 273:Drivers/STM32F4xx_HAL_Driver/Src/stm32f4xx_hal_hcd.c ****   hhcd->State = HAL_HCD_STATE_BUSY;
 274:Drivers/STM32F4xx_HAL_Driver/Src/stm32f4xx_hal_hcd.c **** 
 275:Drivers/STM32F4xx_HAL_Driver/Src/stm32f4xx_hal_hcd.c **** #if (USE_HAL_HCD_REGISTER_CALLBACKS == 1U)
 276:Drivers/STM32F4xx_HAL_Driver/Src/stm32f4xx_hal_hcd.c ****   if (hhcd->MspDeInitCallback == NULL)
 277:Drivers/STM32F4xx_HAL_Driver/Src/stm32f4xx_hal_hcd.c ****   {
 278:Drivers/STM32F4xx_HAL_Driver/Src/stm32f4xx_hal_hcd.c ****     hhcd->MspDeInitCallback = HAL_HCD_MspDeInit; /* Legacy weak MspDeInit  */
 279:Drivers/STM32F4xx_HAL_Driver/Src/stm32f4xx_hal_hcd.c ****   }
 280:Drivers/STM32F4xx_HAL_Driver/Src/stm32f4xx_hal_hcd.c **** 
 281:Drivers/STM32F4xx_HAL_Driver/Src/stm32f4xx_hal_hcd.c ****   /* DeInit the low level hardware */
 282:Drivers/STM32F4xx_HAL_Driver/Src/stm32f4xx_hal_hcd.c ****   hhcd->MspDeInitCallback(hhcd);
 283:Drivers/STM32F4xx_HAL_Driver/Src/stm32f4xx_hal_hcd.c **** #else
 284:Drivers/STM32F4xx_HAL_Driver/Src/stm32f4xx_hal_hcd.c ****   /* DeInit the low level hardware: CLOCK, NVIC.*/
 285:Drivers/STM32F4xx_HAL_Driver/Src/stm32f4xx_hal_hcd.c ****   HAL_HCD_MspDeInit(hhcd);
 286:Drivers/STM32F4xx_HAL_Driver/Src/stm32f4xx_hal_hcd.c **** #endif /* USE_HAL_HCD_REGISTER_CALLBACKS */
 287:Drivers/STM32F4xx_HAL_Driver/Src/stm32f4xx_hal_hcd.c **** 
 288:Drivers/STM32F4xx_HAL_Driver/Src/stm32f4xx_hal_hcd.c ****   __HAL_HCD_DISABLE(hhcd);
 289:Drivers/STM32F4xx_HAL_Driver/Src/stm32f4xx_hal_hcd.c **** 
 290:Drivers/STM32F4xx_HAL_Driver/Src/stm32f4xx_hal_hcd.c ****   hhcd->State = HAL_HCD_STATE_RESET;
 291:Drivers/STM32F4xx_HAL_Driver/Src/stm32f4xx_hal_hcd.c **** 
 292:Drivers/STM32F4xx_HAL_Driver/Src/stm32f4xx_hal_hcd.c ****   return HAL_OK;
 293:Drivers/STM32F4xx_HAL_Driver/Src/stm32f4xx_hal_hcd.c **** }
 294:Drivers/STM32F4xx_HAL_Driver/Src/stm32f4xx_hal_hcd.c **** 
 295:Drivers/STM32F4xx_HAL_Driver/Src/stm32f4xx_hal_hcd.c **** /**
 296:Drivers/STM32F4xx_HAL_Driver/Src/stm32f4xx_hal_hcd.c ****   * @brief  Initialize the HCD MSP.
 297:Drivers/STM32F4xx_HAL_Driver/Src/stm32f4xx_hal_hcd.c ****   * @param  hhcd HCD handle
 298:Drivers/STM32F4xx_HAL_Driver/Src/stm32f4xx_hal_hcd.c ****   * @retval None
 299:Drivers/STM32F4xx_HAL_Driver/Src/stm32f4xx_hal_hcd.c ****   */
 300:Drivers/STM32F4xx_HAL_Driver/Src/stm32f4xx_hal_hcd.c **** __weak void  HAL_HCD_MspInit(HCD_HandleTypeDef *hhcd)
 301:Drivers/STM32F4xx_HAL_Driver/Src/stm32f4xx_hal_hcd.c **** {
 302:Drivers/STM32F4xx_HAL_Driver/Src/stm32f4xx_hal_hcd.c ****   /* Prevent unused argument(s) compilation warning */
 303:Drivers/STM32F4xx_HAL_Driver/Src/stm32f4xx_hal_hcd.c ****   UNUSED(hhcd);
 304:Drivers/STM32F4xx_HAL_Driver/Src/stm32f4xx_hal_hcd.c **** 
 305:Drivers/STM32F4xx_HAL_Driver/Src/stm32f4xx_hal_hcd.c ****   /* NOTE : This function should not be modified, when the callback is needed,
 306:Drivers/STM32F4xx_HAL_Driver/Src/stm32f4xx_hal_hcd.c ****             the HAL_HCD_MspInit could be implemented in the user file
 307:Drivers/STM32F4xx_HAL_Driver/Src/stm32f4xx_hal_hcd.c ****    */
 308:Drivers/STM32F4xx_HAL_Driver/Src/stm32f4xx_hal_hcd.c **** }
 309:Drivers/STM32F4xx_HAL_Driver/Src/stm32f4xx_hal_hcd.c **** 
 310:Drivers/STM32F4xx_HAL_Driver/Src/stm32f4xx_hal_hcd.c **** /**
 311:Drivers/STM32F4xx_HAL_Driver/Src/stm32f4xx_hal_hcd.c ****   * @brief  DeInitialize the HCD MSP.
 312:Drivers/STM32F4xx_HAL_Driver/Src/stm32f4xx_hal_hcd.c ****   * @param  hhcd HCD handle
 313:Drivers/STM32F4xx_HAL_Driver/Src/stm32f4xx_hal_hcd.c ****   * @retval None
 314:Drivers/STM32F4xx_HAL_Driver/Src/stm32f4xx_hal_hcd.c ****   */
 315:Drivers/STM32F4xx_HAL_Driver/Src/stm32f4xx_hal_hcd.c **** __weak void  HAL_HCD_MspDeInit(HCD_HandleTypeDef *hhcd)
ARM GAS  /tmp/ccJjbwbP.s 			page 7


 316:Drivers/STM32F4xx_HAL_Driver/Src/stm32f4xx_hal_hcd.c **** {
 317:Drivers/STM32F4xx_HAL_Driver/Src/stm32f4xx_hal_hcd.c ****   /* Prevent unused argument(s) compilation warning */
 318:Drivers/STM32F4xx_HAL_Driver/Src/stm32f4xx_hal_hcd.c ****   UNUSED(hhcd);
 319:Drivers/STM32F4xx_HAL_Driver/Src/stm32f4xx_hal_hcd.c **** 
 320:Drivers/STM32F4xx_HAL_Driver/Src/stm32f4xx_hal_hcd.c ****   /* NOTE : This function should not be modified, when the callback is needed,
 321:Drivers/STM32F4xx_HAL_Driver/Src/stm32f4xx_hal_hcd.c ****             the HAL_HCD_MspDeInit could be implemented in the user file
 322:Drivers/STM32F4xx_HAL_Driver/Src/stm32f4xx_hal_hcd.c ****    */
 323:Drivers/STM32F4xx_HAL_Driver/Src/stm32f4xx_hal_hcd.c **** }
 324:Drivers/STM32F4xx_HAL_Driver/Src/stm32f4xx_hal_hcd.c **** 
 325:Drivers/STM32F4xx_HAL_Driver/Src/stm32f4xx_hal_hcd.c **** /**
 326:Drivers/STM32F4xx_HAL_Driver/Src/stm32f4xx_hal_hcd.c ****   * @}
 327:Drivers/STM32F4xx_HAL_Driver/Src/stm32f4xx_hal_hcd.c ****   */
 328:Drivers/STM32F4xx_HAL_Driver/Src/stm32f4xx_hal_hcd.c **** 
 329:Drivers/STM32F4xx_HAL_Driver/Src/stm32f4xx_hal_hcd.c **** /** @defgroup HCD_Exported_Functions_Group2 Input and Output operation functions
 330:Drivers/STM32F4xx_HAL_Driver/Src/stm32f4xx_hal_hcd.c ****   *  @brief   HCD IO operation functions
 331:Drivers/STM32F4xx_HAL_Driver/Src/stm32f4xx_hal_hcd.c ****   *
 332:Drivers/STM32F4xx_HAL_Driver/Src/stm32f4xx_hal_hcd.c **** @verbatim
 333:Drivers/STM32F4xx_HAL_Driver/Src/stm32f4xx_hal_hcd.c ****  ===============================================================================
 334:Drivers/STM32F4xx_HAL_Driver/Src/stm32f4xx_hal_hcd.c ****                       ##### IO operation functions #####
 335:Drivers/STM32F4xx_HAL_Driver/Src/stm32f4xx_hal_hcd.c ****  ===============================================================================
 336:Drivers/STM32F4xx_HAL_Driver/Src/stm32f4xx_hal_hcd.c ****  [..] This subsection provides a set of functions allowing to manage the USB Host Data
 337:Drivers/STM32F4xx_HAL_Driver/Src/stm32f4xx_hal_hcd.c ****     Transfer
 338:Drivers/STM32F4xx_HAL_Driver/Src/stm32f4xx_hal_hcd.c **** 
 339:Drivers/STM32F4xx_HAL_Driver/Src/stm32f4xx_hal_hcd.c **** @endverbatim
 340:Drivers/STM32F4xx_HAL_Driver/Src/stm32f4xx_hal_hcd.c ****   * @{
 341:Drivers/STM32F4xx_HAL_Driver/Src/stm32f4xx_hal_hcd.c ****   */
 342:Drivers/STM32F4xx_HAL_Driver/Src/stm32f4xx_hal_hcd.c **** 
 343:Drivers/STM32F4xx_HAL_Driver/Src/stm32f4xx_hal_hcd.c **** /**
 344:Drivers/STM32F4xx_HAL_Driver/Src/stm32f4xx_hal_hcd.c ****   * @brief  Submit a new URB for processing.
 345:Drivers/STM32F4xx_HAL_Driver/Src/stm32f4xx_hal_hcd.c ****   * @param  hhcd HCD handle
 346:Drivers/STM32F4xx_HAL_Driver/Src/stm32f4xx_hal_hcd.c ****   * @param  ch_num Channel number.
 347:Drivers/STM32F4xx_HAL_Driver/Src/stm32f4xx_hal_hcd.c ****   *         This parameter can be a value from 1 to 15
 348:Drivers/STM32F4xx_HAL_Driver/Src/stm32f4xx_hal_hcd.c ****   * @param  direction Channel number.
 349:Drivers/STM32F4xx_HAL_Driver/Src/stm32f4xx_hal_hcd.c ****   *          This parameter can be one of these values:
 350:Drivers/STM32F4xx_HAL_Driver/Src/stm32f4xx_hal_hcd.c ****   *           0 : Output / 1 : Input
 351:Drivers/STM32F4xx_HAL_Driver/Src/stm32f4xx_hal_hcd.c ****   * @param  ep_type Endpoint Type.
 352:Drivers/STM32F4xx_HAL_Driver/Src/stm32f4xx_hal_hcd.c ****   *          This parameter can be one of these values:
 353:Drivers/STM32F4xx_HAL_Driver/Src/stm32f4xx_hal_hcd.c ****   *            EP_TYPE_CTRL: Control type/
 354:Drivers/STM32F4xx_HAL_Driver/Src/stm32f4xx_hal_hcd.c ****   *            EP_TYPE_ISOC: Isochronous type/
 355:Drivers/STM32F4xx_HAL_Driver/Src/stm32f4xx_hal_hcd.c ****   *            EP_TYPE_BULK: Bulk type/
 356:Drivers/STM32F4xx_HAL_Driver/Src/stm32f4xx_hal_hcd.c ****   *            EP_TYPE_INTR: Interrupt type/
 357:Drivers/STM32F4xx_HAL_Driver/Src/stm32f4xx_hal_hcd.c ****   * @param  token Endpoint Type.
 358:Drivers/STM32F4xx_HAL_Driver/Src/stm32f4xx_hal_hcd.c ****   *          This parameter can be one of these values:
 359:Drivers/STM32F4xx_HAL_Driver/Src/stm32f4xx_hal_hcd.c ****   *            0: HC_PID_SETUP / 1: HC_PID_DATA1
 360:Drivers/STM32F4xx_HAL_Driver/Src/stm32f4xx_hal_hcd.c ****   * @param  pbuff pointer to URB data
 361:Drivers/STM32F4xx_HAL_Driver/Src/stm32f4xx_hal_hcd.c ****   * @param  length Length of URB data
 362:Drivers/STM32F4xx_HAL_Driver/Src/stm32f4xx_hal_hcd.c ****   * @param  do_ping activate do ping protocol (for high speed only).
 363:Drivers/STM32F4xx_HAL_Driver/Src/stm32f4xx_hal_hcd.c ****   *          This parameter can be one of these values:
 364:Drivers/STM32F4xx_HAL_Driver/Src/stm32f4xx_hal_hcd.c ****   *           0 : do ping inactive / 1 : do ping active
 365:Drivers/STM32F4xx_HAL_Driver/Src/stm32f4xx_hal_hcd.c ****   * @retval HAL status
 366:Drivers/STM32F4xx_HAL_Driver/Src/stm32f4xx_hal_hcd.c ****   */
 367:Drivers/STM32F4xx_HAL_Driver/Src/stm32f4xx_hal_hcd.c **** HAL_StatusTypeDef HAL_HCD_HC_SubmitRequest(HCD_HandleTypeDef *hhcd,
 368:Drivers/STM32F4xx_HAL_Driver/Src/stm32f4xx_hal_hcd.c ****                                            uint8_t ch_num,
 369:Drivers/STM32F4xx_HAL_Driver/Src/stm32f4xx_hal_hcd.c ****                                            uint8_t direction,
 370:Drivers/STM32F4xx_HAL_Driver/Src/stm32f4xx_hal_hcd.c ****                                            uint8_t ep_type,
 371:Drivers/STM32F4xx_HAL_Driver/Src/stm32f4xx_hal_hcd.c ****                                            uint8_t token,
 372:Drivers/STM32F4xx_HAL_Driver/Src/stm32f4xx_hal_hcd.c ****                                            uint8_t *pbuff,
ARM GAS  /tmp/ccJjbwbP.s 			page 8


 373:Drivers/STM32F4xx_HAL_Driver/Src/stm32f4xx_hal_hcd.c ****                                            uint16_t length,
 374:Drivers/STM32F4xx_HAL_Driver/Src/stm32f4xx_hal_hcd.c ****                                            uint8_t do_ping)
 375:Drivers/STM32F4xx_HAL_Driver/Src/stm32f4xx_hal_hcd.c **** {
 376:Drivers/STM32F4xx_HAL_Driver/Src/stm32f4xx_hal_hcd.c ****   hhcd->hc[ch_num].ep_is_in = direction;
 377:Drivers/STM32F4xx_HAL_Driver/Src/stm32f4xx_hal_hcd.c ****   hhcd->hc[ch_num].ep_type  = ep_type;
 378:Drivers/STM32F4xx_HAL_Driver/Src/stm32f4xx_hal_hcd.c **** 
 379:Drivers/STM32F4xx_HAL_Driver/Src/stm32f4xx_hal_hcd.c ****   if (token == 0U)
 380:Drivers/STM32F4xx_HAL_Driver/Src/stm32f4xx_hal_hcd.c ****   {
 381:Drivers/STM32F4xx_HAL_Driver/Src/stm32f4xx_hal_hcd.c ****     hhcd->hc[ch_num].data_pid = HC_PID_SETUP;
 382:Drivers/STM32F4xx_HAL_Driver/Src/stm32f4xx_hal_hcd.c ****     hhcd->hc[ch_num].do_ping = do_ping;
 383:Drivers/STM32F4xx_HAL_Driver/Src/stm32f4xx_hal_hcd.c ****   }
 384:Drivers/STM32F4xx_HAL_Driver/Src/stm32f4xx_hal_hcd.c ****   else
 385:Drivers/STM32F4xx_HAL_Driver/Src/stm32f4xx_hal_hcd.c ****   {
 386:Drivers/STM32F4xx_HAL_Driver/Src/stm32f4xx_hal_hcd.c ****     hhcd->hc[ch_num].data_pid = HC_PID_DATA1;
 387:Drivers/STM32F4xx_HAL_Driver/Src/stm32f4xx_hal_hcd.c ****   }
 388:Drivers/STM32F4xx_HAL_Driver/Src/stm32f4xx_hal_hcd.c **** 
 389:Drivers/STM32F4xx_HAL_Driver/Src/stm32f4xx_hal_hcd.c ****   /* Manage Data Toggle */
 390:Drivers/STM32F4xx_HAL_Driver/Src/stm32f4xx_hal_hcd.c ****   switch (ep_type)
 391:Drivers/STM32F4xx_HAL_Driver/Src/stm32f4xx_hal_hcd.c ****   {
 392:Drivers/STM32F4xx_HAL_Driver/Src/stm32f4xx_hal_hcd.c ****     case EP_TYPE_CTRL:
 393:Drivers/STM32F4xx_HAL_Driver/Src/stm32f4xx_hal_hcd.c ****       if ((token == 1U) && (direction == 0U)) /*send data */
 394:Drivers/STM32F4xx_HAL_Driver/Src/stm32f4xx_hal_hcd.c ****       {
 395:Drivers/STM32F4xx_HAL_Driver/Src/stm32f4xx_hal_hcd.c ****         if (length == 0U)
 396:Drivers/STM32F4xx_HAL_Driver/Src/stm32f4xx_hal_hcd.c ****         {
 397:Drivers/STM32F4xx_HAL_Driver/Src/stm32f4xx_hal_hcd.c ****           /* For Status OUT stage, Length==0, Status Out PID = 1 */
 398:Drivers/STM32F4xx_HAL_Driver/Src/stm32f4xx_hal_hcd.c ****           hhcd->hc[ch_num].toggle_out = 1U;
 399:Drivers/STM32F4xx_HAL_Driver/Src/stm32f4xx_hal_hcd.c ****         }
 400:Drivers/STM32F4xx_HAL_Driver/Src/stm32f4xx_hal_hcd.c **** 
 401:Drivers/STM32F4xx_HAL_Driver/Src/stm32f4xx_hal_hcd.c ****         /* Set the Data Toggle bit as per the Flag */
 402:Drivers/STM32F4xx_HAL_Driver/Src/stm32f4xx_hal_hcd.c ****         if (hhcd->hc[ch_num].toggle_out == 0U)
 403:Drivers/STM32F4xx_HAL_Driver/Src/stm32f4xx_hal_hcd.c ****         {
 404:Drivers/STM32F4xx_HAL_Driver/Src/stm32f4xx_hal_hcd.c ****           /* Put the PID 0 */
 405:Drivers/STM32F4xx_HAL_Driver/Src/stm32f4xx_hal_hcd.c ****           hhcd->hc[ch_num].data_pid = HC_PID_DATA0;
 406:Drivers/STM32F4xx_HAL_Driver/Src/stm32f4xx_hal_hcd.c ****         }
 407:Drivers/STM32F4xx_HAL_Driver/Src/stm32f4xx_hal_hcd.c ****         else
 408:Drivers/STM32F4xx_HAL_Driver/Src/stm32f4xx_hal_hcd.c ****         {
 409:Drivers/STM32F4xx_HAL_Driver/Src/stm32f4xx_hal_hcd.c ****           /* Put the PID 1 */
 410:Drivers/STM32F4xx_HAL_Driver/Src/stm32f4xx_hal_hcd.c ****           hhcd->hc[ch_num].data_pid = HC_PID_DATA1;
 411:Drivers/STM32F4xx_HAL_Driver/Src/stm32f4xx_hal_hcd.c ****         }
 412:Drivers/STM32F4xx_HAL_Driver/Src/stm32f4xx_hal_hcd.c ****       }
 413:Drivers/STM32F4xx_HAL_Driver/Src/stm32f4xx_hal_hcd.c ****       break;
 414:Drivers/STM32F4xx_HAL_Driver/Src/stm32f4xx_hal_hcd.c **** 
 415:Drivers/STM32F4xx_HAL_Driver/Src/stm32f4xx_hal_hcd.c ****     case EP_TYPE_BULK:
 416:Drivers/STM32F4xx_HAL_Driver/Src/stm32f4xx_hal_hcd.c ****       if (direction == 0U)
 417:Drivers/STM32F4xx_HAL_Driver/Src/stm32f4xx_hal_hcd.c ****       {
 418:Drivers/STM32F4xx_HAL_Driver/Src/stm32f4xx_hal_hcd.c ****         /* Set the Data Toggle bit as per the Flag */
 419:Drivers/STM32F4xx_HAL_Driver/Src/stm32f4xx_hal_hcd.c ****         if (hhcd->hc[ch_num].toggle_out == 0U)
 420:Drivers/STM32F4xx_HAL_Driver/Src/stm32f4xx_hal_hcd.c ****         {
 421:Drivers/STM32F4xx_HAL_Driver/Src/stm32f4xx_hal_hcd.c ****           /* Put the PID 0 */
 422:Drivers/STM32F4xx_HAL_Driver/Src/stm32f4xx_hal_hcd.c ****           hhcd->hc[ch_num].data_pid = HC_PID_DATA0;
 423:Drivers/STM32F4xx_HAL_Driver/Src/stm32f4xx_hal_hcd.c ****         }
 424:Drivers/STM32F4xx_HAL_Driver/Src/stm32f4xx_hal_hcd.c ****         else
 425:Drivers/STM32F4xx_HAL_Driver/Src/stm32f4xx_hal_hcd.c ****         {
 426:Drivers/STM32F4xx_HAL_Driver/Src/stm32f4xx_hal_hcd.c ****           /* Put the PID 1 */
 427:Drivers/STM32F4xx_HAL_Driver/Src/stm32f4xx_hal_hcd.c ****           hhcd->hc[ch_num].data_pid = HC_PID_DATA1;
 428:Drivers/STM32F4xx_HAL_Driver/Src/stm32f4xx_hal_hcd.c ****         }
 429:Drivers/STM32F4xx_HAL_Driver/Src/stm32f4xx_hal_hcd.c ****       }
ARM GAS  /tmp/ccJjbwbP.s 			page 9


 430:Drivers/STM32F4xx_HAL_Driver/Src/stm32f4xx_hal_hcd.c ****       else
 431:Drivers/STM32F4xx_HAL_Driver/Src/stm32f4xx_hal_hcd.c ****       {
 432:Drivers/STM32F4xx_HAL_Driver/Src/stm32f4xx_hal_hcd.c ****         if (hhcd->hc[ch_num].toggle_in == 0U)
 433:Drivers/STM32F4xx_HAL_Driver/Src/stm32f4xx_hal_hcd.c ****         {
 434:Drivers/STM32F4xx_HAL_Driver/Src/stm32f4xx_hal_hcd.c ****           hhcd->hc[ch_num].data_pid = HC_PID_DATA0;
 435:Drivers/STM32F4xx_HAL_Driver/Src/stm32f4xx_hal_hcd.c ****         }
 436:Drivers/STM32F4xx_HAL_Driver/Src/stm32f4xx_hal_hcd.c ****         else
 437:Drivers/STM32F4xx_HAL_Driver/Src/stm32f4xx_hal_hcd.c ****         {
 438:Drivers/STM32F4xx_HAL_Driver/Src/stm32f4xx_hal_hcd.c ****           hhcd->hc[ch_num].data_pid = HC_PID_DATA1;
 439:Drivers/STM32F4xx_HAL_Driver/Src/stm32f4xx_hal_hcd.c ****         }
 440:Drivers/STM32F4xx_HAL_Driver/Src/stm32f4xx_hal_hcd.c ****       }
 441:Drivers/STM32F4xx_HAL_Driver/Src/stm32f4xx_hal_hcd.c **** 
 442:Drivers/STM32F4xx_HAL_Driver/Src/stm32f4xx_hal_hcd.c ****       break;
 443:Drivers/STM32F4xx_HAL_Driver/Src/stm32f4xx_hal_hcd.c ****     case EP_TYPE_INTR:
 444:Drivers/STM32F4xx_HAL_Driver/Src/stm32f4xx_hal_hcd.c ****       if (direction == 0U)
 445:Drivers/STM32F4xx_HAL_Driver/Src/stm32f4xx_hal_hcd.c ****       {
 446:Drivers/STM32F4xx_HAL_Driver/Src/stm32f4xx_hal_hcd.c ****         /* Set the Data Toggle bit as per the Flag */
 447:Drivers/STM32F4xx_HAL_Driver/Src/stm32f4xx_hal_hcd.c ****         if (hhcd->hc[ch_num].toggle_out == 0U)
 448:Drivers/STM32F4xx_HAL_Driver/Src/stm32f4xx_hal_hcd.c ****         {
 449:Drivers/STM32F4xx_HAL_Driver/Src/stm32f4xx_hal_hcd.c ****           /* Put the PID 0 */
 450:Drivers/STM32F4xx_HAL_Driver/Src/stm32f4xx_hal_hcd.c ****           hhcd->hc[ch_num].data_pid = HC_PID_DATA0;
 451:Drivers/STM32F4xx_HAL_Driver/Src/stm32f4xx_hal_hcd.c ****         }
 452:Drivers/STM32F4xx_HAL_Driver/Src/stm32f4xx_hal_hcd.c ****         else
 453:Drivers/STM32F4xx_HAL_Driver/Src/stm32f4xx_hal_hcd.c ****         {
 454:Drivers/STM32F4xx_HAL_Driver/Src/stm32f4xx_hal_hcd.c ****           /* Put the PID 1 */
 455:Drivers/STM32F4xx_HAL_Driver/Src/stm32f4xx_hal_hcd.c ****           hhcd->hc[ch_num].data_pid = HC_PID_DATA1;
 456:Drivers/STM32F4xx_HAL_Driver/Src/stm32f4xx_hal_hcd.c ****         }
 457:Drivers/STM32F4xx_HAL_Driver/Src/stm32f4xx_hal_hcd.c ****       }
 458:Drivers/STM32F4xx_HAL_Driver/Src/stm32f4xx_hal_hcd.c ****       else
 459:Drivers/STM32F4xx_HAL_Driver/Src/stm32f4xx_hal_hcd.c ****       {
 460:Drivers/STM32F4xx_HAL_Driver/Src/stm32f4xx_hal_hcd.c ****         if (hhcd->hc[ch_num].toggle_in == 0U)
 461:Drivers/STM32F4xx_HAL_Driver/Src/stm32f4xx_hal_hcd.c ****         {
 462:Drivers/STM32F4xx_HAL_Driver/Src/stm32f4xx_hal_hcd.c ****           hhcd->hc[ch_num].data_pid = HC_PID_DATA0;
 463:Drivers/STM32F4xx_HAL_Driver/Src/stm32f4xx_hal_hcd.c ****         }
 464:Drivers/STM32F4xx_HAL_Driver/Src/stm32f4xx_hal_hcd.c ****         else
 465:Drivers/STM32F4xx_HAL_Driver/Src/stm32f4xx_hal_hcd.c ****         {
 466:Drivers/STM32F4xx_HAL_Driver/Src/stm32f4xx_hal_hcd.c ****           hhcd->hc[ch_num].data_pid = HC_PID_DATA1;
 467:Drivers/STM32F4xx_HAL_Driver/Src/stm32f4xx_hal_hcd.c ****         }
 468:Drivers/STM32F4xx_HAL_Driver/Src/stm32f4xx_hal_hcd.c ****       }
 469:Drivers/STM32F4xx_HAL_Driver/Src/stm32f4xx_hal_hcd.c ****       break;
 470:Drivers/STM32F4xx_HAL_Driver/Src/stm32f4xx_hal_hcd.c **** 
 471:Drivers/STM32F4xx_HAL_Driver/Src/stm32f4xx_hal_hcd.c ****     case EP_TYPE_ISOC:
 472:Drivers/STM32F4xx_HAL_Driver/Src/stm32f4xx_hal_hcd.c ****       hhcd->hc[ch_num].data_pid = HC_PID_DATA0;
 473:Drivers/STM32F4xx_HAL_Driver/Src/stm32f4xx_hal_hcd.c ****       break;
 474:Drivers/STM32F4xx_HAL_Driver/Src/stm32f4xx_hal_hcd.c **** 
 475:Drivers/STM32F4xx_HAL_Driver/Src/stm32f4xx_hal_hcd.c ****     default:
 476:Drivers/STM32F4xx_HAL_Driver/Src/stm32f4xx_hal_hcd.c ****       break;
 477:Drivers/STM32F4xx_HAL_Driver/Src/stm32f4xx_hal_hcd.c ****   }
 478:Drivers/STM32F4xx_HAL_Driver/Src/stm32f4xx_hal_hcd.c **** 
 479:Drivers/STM32F4xx_HAL_Driver/Src/stm32f4xx_hal_hcd.c ****   hhcd->hc[ch_num].xfer_buff = pbuff;
 480:Drivers/STM32F4xx_HAL_Driver/Src/stm32f4xx_hal_hcd.c ****   hhcd->hc[ch_num].xfer_len  = length;
 481:Drivers/STM32F4xx_HAL_Driver/Src/stm32f4xx_hal_hcd.c ****   hhcd->hc[ch_num].urb_state = URB_IDLE;
 482:Drivers/STM32F4xx_HAL_Driver/Src/stm32f4xx_hal_hcd.c ****   hhcd->hc[ch_num].xfer_count = 0U;
 483:Drivers/STM32F4xx_HAL_Driver/Src/stm32f4xx_hal_hcd.c ****   hhcd->hc[ch_num].ch_num = ch_num;
 484:Drivers/STM32F4xx_HAL_Driver/Src/stm32f4xx_hal_hcd.c ****   hhcd->hc[ch_num].state = HC_IDLE;
 485:Drivers/STM32F4xx_HAL_Driver/Src/stm32f4xx_hal_hcd.c **** 
 486:Drivers/STM32F4xx_HAL_Driver/Src/stm32f4xx_hal_hcd.c ****   return USB_HC_StartXfer(hhcd->Instance, &hhcd->hc[ch_num], (uint8_t)hhcd->Init.dma_enable);
ARM GAS  /tmp/ccJjbwbP.s 			page 10


 487:Drivers/STM32F4xx_HAL_Driver/Src/stm32f4xx_hal_hcd.c **** }
 488:Drivers/STM32F4xx_HAL_Driver/Src/stm32f4xx_hal_hcd.c **** 
 489:Drivers/STM32F4xx_HAL_Driver/Src/stm32f4xx_hal_hcd.c **** /**
 490:Drivers/STM32F4xx_HAL_Driver/Src/stm32f4xx_hal_hcd.c ****   * @brief  Handle HCD interrupt request.
 491:Drivers/STM32F4xx_HAL_Driver/Src/stm32f4xx_hal_hcd.c ****   * @param  hhcd HCD handle
 492:Drivers/STM32F4xx_HAL_Driver/Src/stm32f4xx_hal_hcd.c ****   * @retval None
 493:Drivers/STM32F4xx_HAL_Driver/Src/stm32f4xx_hal_hcd.c ****   */
 494:Drivers/STM32F4xx_HAL_Driver/Src/stm32f4xx_hal_hcd.c **** void HAL_HCD_IRQHandler(HCD_HandleTypeDef *hhcd)
 495:Drivers/STM32F4xx_HAL_Driver/Src/stm32f4xx_hal_hcd.c **** {
 496:Drivers/STM32F4xx_HAL_Driver/Src/stm32f4xx_hal_hcd.c ****   USB_OTG_GlobalTypeDef *USBx = hhcd->Instance;
 497:Drivers/STM32F4xx_HAL_Driver/Src/stm32f4xx_hal_hcd.c ****   uint32_t USBx_BASE = (uint32_t)USBx;
 498:Drivers/STM32F4xx_HAL_Driver/Src/stm32f4xx_hal_hcd.c ****   uint32_t i, interrupt;
 499:Drivers/STM32F4xx_HAL_Driver/Src/stm32f4xx_hal_hcd.c **** 
 500:Drivers/STM32F4xx_HAL_Driver/Src/stm32f4xx_hal_hcd.c ****   /* Ensure that we are in device mode */
 501:Drivers/STM32F4xx_HAL_Driver/Src/stm32f4xx_hal_hcd.c ****   if (USB_GetMode(hhcd->Instance) == USB_OTG_MODE_HOST)
 502:Drivers/STM32F4xx_HAL_Driver/Src/stm32f4xx_hal_hcd.c ****   {
 503:Drivers/STM32F4xx_HAL_Driver/Src/stm32f4xx_hal_hcd.c ****     /* Avoid spurious interrupt */
 504:Drivers/STM32F4xx_HAL_Driver/Src/stm32f4xx_hal_hcd.c ****     if (__HAL_HCD_IS_INVALID_INTERRUPT(hhcd))
 505:Drivers/STM32F4xx_HAL_Driver/Src/stm32f4xx_hal_hcd.c ****     {
 506:Drivers/STM32F4xx_HAL_Driver/Src/stm32f4xx_hal_hcd.c ****       return;
 507:Drivers/STM32F4xx_HAL_Driver/Src/stm32f4xx_hal_hcd.c ****     }
 508:Drivers/STM32F4xx_HAL_Driver/Src/stm32f4xx_hal_hcd.c **** 
 509:Drivers/STM32F4xx_HAL_Driver/Src/stm32f4xx_hal_hcd.c ****     if (__HAL_HCD_GET_FLAG(hhcd, USB_OTG_GINTSTS_PXFR_INCOMPISOOUT))
 510:Drivers/STM32F4xx_HAL_Driver/Src/stm32f4xx_hal_hcd.c ****     {
 511:Drivers/STM32F4xx_HAL_Driver/Src/stm32f4xx_hal_hcd.c ****       /* Incorrect mode, acknowledge the interrupt */
 512:Drivers/STM32F4xx_HAL_Driver/Src/stm32f4xx_hal_hcd.c ****       __HAL_HCD_CLEAR_FLAG(hhcd, USB_OTG_GINTSTS_PXFR_INCOMPISOOUT);
 513:Drivers/STM32F4xx_HAL_Driver/Src/stm32f4xx_hal_hcd.c ****     }
 514:Drivers/STM32F4xx_HAL_Driver/Src/stm32f4xx_hal_hcd.c **** 
 515:Drivers/STM32F4xx_HAL_Driver/Src/stm32f4xx_hal_hcd.c ****     if (__HAL_HCD_GET_FLAG(hhcd, USB_OTG_GINTSTS_IISOIXFR))
 516:Drivers/STM32F4xx_HAL_Driver/Src/stm32f4xx_hal_hcd.c ****     {
 517:Drivers/STM32F4xx_HAL_Driver/Src/stm32f4xx_hal_hcd.c ****       /* Incorrect mode, acknowledge the interrupt */
 518:Drivers/STM32F4xx_HAL_Driver/Src/stm32f4xx_hal_hcd.c ****       __HAL_HCD_CLEAR_FLAG(hhcd, USB_OTG_GINTSTS_IISOIXFR);
 519:Drivers/STM32F4xx_HAL_Driver/Src/stm32f4xx_hal_hcd.c ****     }
 520:Drivers/STM32F4xx_HAL_Driver/Src/stm32f4xx_hal_hcd.c **** 
 521:Drivers/STM32F4xx_HAL_Driver/Src/stm32f4xx_hal_hcd.c ****     if (__HAL_HCD_GET_FLAG(hhcd, USB_OTG_GINTSTS_PTXFE))
 522:Drivers/STM32F4xx_HAL_Driver/Src/stm32f4xx_hal_hcd.c ****     {
 523:Drivers/STM32F4xx_HAL_Driver/Src/stm32f4xx_hal_hcd.c ****       /* Incorrect mode, acknowledge the interrupt */
 524:Drivers/STM32F4xx_HAL_Driver/Src/stm32f4xx_hal_hcd.c ****       __HAL_HCD_CLEAR_FLAG(hhcd, USB_OTG_GINTSTS_PTXFE);
 525:Drivers/STM32F4xx_HAL_Driver/Src/stm32f4xx_hal_hcd.c ****     }
 526:Drivers/STM32F4xx_HAL_Driver/Src/stm32f4xx_hal_hcd.c **** 
 527:Drivers/STM32F4xx_HAL_Driver/Src/stm32f4xx_hal_hcd.c ****     if (__HAL_HCD_GET_FLAG(hhcd, USB_OTG_GINTSTS_MMIS))
 528:Drivers/STM32F4xx_HAL_Driver/Src/stm32f4xx_hal_hcd.c ****     {
 529:Drivers/STM32F4xx_HAL_Driver/Src/stm32f4xx_hal_hcd.c ****       /* Incorrect mode, acknowledge the interrupt */
 530:Drivers/STM32F4xx_HAL_Driver/Src/stm32f4xx_hal_hcd.c ****       __HAL_HCD_CLEAR_FLAG(hhcd, USB_OTG_GINTSTS_MMIS);
 531:Drivers/STM32F4xx_HAL_Driver/Src/stm32f4xx_hal_hcd.c ****     }
 532:Drivers/STM32F4xx_HAL_Driver/Src/stm32f4xx_hal_hcd.c **** 
 533:Drivers/STM32F4xx_HAL_Driver/Src/stm32f4xx_hal_hcd.c ****     /* Handle Host Disconnect Interrupts */
 534:Drivers/STM32F4xx_HAL_Driver/Src/stm32f4xx_hal_hcd.c ****     if (__HAL_HCD_GET_FLAG(hhcd, USB_OTG_GINTSTS_DISCINT))
 535:Drivers/STM32F4xx_HAL_Driver/Src/stm32f4xx_hal_hcd.c ****     {
 536:Drivers/STM32F4xx_HAL_Driver/Src/stm32f4xx_hal_hcd.c ****       __HAL_HCD_CLEAR_FLAG(hhcd, USB_OTG_GINTSTS_DISCINT);
 537:Drivers/STM32F4xx_HAL_Driver/Src/stm32f4xx_hal_hcd.c **** 
 538:Drivers/STM32F4xx_HAL_Driver/Src/stm32f4xx_hal_hcd.c ****       if ((USBx_HPRT0 & USB_OTG_HPRT_PCSTS) == 0U)
 539:Drivers/STM32F4xx_HAL_Driver/Src/stm32f4xx_hal_hcd.c ****       {
 540:Drivers/STM32F4xx_HAL_Driver/Src/stm32f4xx_hal_hcd.c ****         /* Handle Host Port Disconnect Interrupt */
 541:Drivers/STM32F4xx_HAL_Driver/Src/stm32f4xx_hal_hcd.c **** #if (USE_HAL_HCD_REGISTER_CALLBACKS == 1U)
 542:Drivers/STM32F4xx_HAL_Driver/Src/stm32f4xx_hal_hcd.c ****         hhcd->DisconnectCallback(hhcd);
 543:Drivers/STM32F4xx_HAL_Driver/Src/stm32f4xx_hal_hcd.c **** #else
ARM GAS  /tmp/ccJjbwbP.s 			page 11


 544:Drivers/STM32F4xx_HAL_Driver/Src/stm32f4xx_hal_hcd.c ****         HAL_HCD_Disconnect_Callback(hhcd);
 545:Drivers/STM32F4xx_HAL_Driver/Src/stm32f4xx_hal_hcd.c **** #endif /* USE_HAL_HCD_REGISTER_CALLBACKS */
 546:Drivers/STM32F4xx_HAL_Driver/Src/stm32f4xx_hal_hcd.c **** 
 547:Drivers/STM32F4xx_HAL_Driver/Src/stm32f4xx_hal_hcd.c ****         (void)USB_InitFSLSPClkSel(hhcd->Instance, HCFG_48_MHZ);
 548:Drivers/STM32F4xx_HAL_Driver/Src/stm32f4xx_hal_hcd.c ****       }
 549:Drivers/STM32F4xx_HAL_Driver/Src/stm32f4xx_hal_hcd.c ****     }
 550:Drivers/STM32F4xx_HAL_Driver/Src/stm32f4xx_hal_hcd.c **** 
 551:Drivers/STM32F4xx_HAL_Driver/Src/stm32f4xx_hal_hcd.c ****     /* Handle Host Port Interrupts */
 552:Drivers/STM32F4xx_HAL_Driver/Src/stm32f4xx_hal_hcd.c ****     if (__HAL_HCD_GET_FLAG(hhcd, USB_OTG_GINTSTS_HPRTINT))
 553:Drivers/STM32F4xx_HAL_Driver/Src/stm32f4xx_hal_hcd.c ****     {
 554:Drivers/STM32F4xx_HAL_Driver/Src/stm32f4xx_hal_hcd.c ****       HCD_Port_IRQHandler(hhcd);
 555:Drivers/STM32F4xx_HAL_Driver/Src/stm32f4xx_hal_hcd.c ****     }
 556:Drivers/STM32F4xx_HAL_Driver/Src/stm32f4xx_hal_hcd.c **** 
 557:Drivers/STM32F4xx_HAL_Driver/Src/stm32f4xx_hal_hcd.c ****     /* Handle Host SOF Interrupt */
 558:Drivers/STM32F4xx_HAL_Driver/Src/stm32f4xx_hal_hcd.c ****     if (__HAL_HCD_GET_FLAG(hhcd, USB_OTG_GINTSTS_SOF))
 559:Drivers/STM32F4xx_HAL_Driver/Src/stm32f4xx_hal_hcd.c ****     {
 560:Drivers/STM32F4xx_HAL_Driver/Src/stm32f4xx_hal_hcd.c **** #if (USE_HAL_HCD_REGISTER_CALLBACKS == 1U)
 561:Drivers/STM32F4xx_HAL_Driver/Src/stm32f4xx_hal_hcd.c ****       hhcd->SOFCallback(hhcd);
 562:Drivers/STM32F4xx_HAL_Driver/Src/stm32f4xx_hal_hcd.c **** #else
 563:Drivers/STM32F4xx_HAL_Driver/Src/stm32f4xx_hal_hcd.c ****       HAL_HCD_SOF_Callback(hhcd);
 564:Drivers/STM32F4xx_HAL_Driver/Src/stm32f4xx_hal_hcd.c **** #endif /* USE_HAL_HCD_REGISTER_CALLBACKS */
 565:Drivers/STM32F4xx_HAL_Driver/Src/stm32f4xx_hal_hcd.c **** 
 566:Drivers/STM32F4xx_HAL_Driver/Src/stm32f4xx_hal_hcd.c ****       __HAL_HCD_CLEAR_FLAG(hhcd, USB_OTG_GINTSTS_SOF);
 567:Drivers/STM32F4xx_HAL_Driver/Src/stm32f4xx_hal_hcd.c ****     }
 568:Drivers/STM32F4xx_HAL_Driver/Src/stm32f4xx_hal_hcd.c **** 
 569:Drivers/STM32F4xx_HAL_Driver/Src/stm32f4xx_hal_hcd.c ****     /* Handle Host channel Interrupt */
 570:Drivers/STM32F4xx_HAL_Driver/Src/stm32f4xx_hal_hcd.c ****     if (__HAL_HCD_GET_FLAG(hhcd, USB_OTG_GINTSTS_HCINT))
 571:Drivers/STM32F4xx_HAL_Driver/Src/stm32f4xx_hal_hcd.c ****     {
 572:Drivers/STM32F4xx_HAL_Driver/Src/stm32f4xx_hal_hcd.c ****       interrupt = USB_HC_ReadInterrupt(hhcd->Instance);
 573:Drivers/STM32F4xx_HAL_Driver/Src/stm32f4xx_hal_hcd.c ****       for (i = 0U; i < hhcd->Init.Host_channels; i++)
 574:Drivers/STM32F4xx_HAL_Driver/Src/stm32f4xx_hal_hcd.c ****       {
 575:Drivers/STM32F4xx_HAL_Driver/Src/stm32f4xx_hal_hcd.c ****         if ((interrupt & (1UL << (i & 0xFU))) != 0U)
 576:Drivers/STM32F4xx_HAL_Driver/Src/stm32f4xx_hal_hcd.c ****         {
 577:Drivers/STM32F4xx_HAL_Driver/Src/stm32f4xx_hal_hcd.c ****           if ((USBx_HC(i)->HCCHAR & USB_OTG_HCCHAR_EPDIR) == USB_OTG_HCCHAR_EPDIR)
 578:Drivers/STM32F4xx_HAL_Driver/Src/stm32f4xx_hal_hcd.c ****           {
 579:Drivers/STM32F4xx_HAL_Driver/Src/stm32f4xx_hal_hcd.c ****             HCD_HC_IN_IRQHandler(hhcd, (uint8_t)i);
 580:Drivers/STM32F4xx_HAL_Driver/Src/stm32f4xx_hal_hcd.c ****           }
 581:Drivers/STM32F4xx_HAL_Driver/Src/stm32f4xx_hal_hcd.c ****           else
 582:Drivers/STM32F4xx_HAL_Driver/Src/stm32f4xx_hal_hcd.c ****           {
 583:Drivers/STM32F4xx_HAL_Driver/Src/stm32f4xx_hal_hcd.c ****             HCD_HC_OUT_IRQHandler(hhcd, (uint8_t)i);
 584:Drivers/STM32F4xx_HAL_Driver/Src/stm32f4xx_hal_hcd.c ****           }
 585:Drivers/STM32F4xx_HAL_Driver/Src/stm32f4xx_hal_hcd.c ****         }
 586:Drivers/STM32F4xx_HAL_Driver/Src/stm32f4xx_hal_hcd.c ****       }
 587:Drivers/STM32F4xx_HAL_Driver/Src/stm32f4xx_hal_hcd.c ****       __HAL_HCD_CLEAR_FLAG(hhcd, USB_OTG_GINTSTS_HCINT);
 588:Drivers/STM32F4xx_HAL_Driver/Src/stm32f4xx_hal_hcd.c ****     }
 589:Drivers/STM32F4xx_HAL_Driver/Src/stm32f4xx_hal_hcd.c **** 
 590:Drivers/STM32F4xx_HAL_Driver/Src/stm32f4xx_hal_hcd.c ****     /* Handle Rx Queue Level Interrupts */
 591:Drivers/STM32F4xx_HAL_Driver/Src/stm32f4xx_hal_hcd.c ****     if ((__HAL_HCD_GET_FLAG(hhcd, USB_OTG_GINTSTS_RXFLVL)) != 0U)
 592:Drivers/STM32F4xx_HAL_Driver/Src/stm32f4xx_hal_hcd.c ****     {
 593:Drivers/STM32F4xx_HAL_Driver/Src/stm32f4xx_hal_hcd.c ****       USB_MASK_INTERRUPT(hhcd->Instance, USB_OTG_GINTSTS_RXFLVL);
 594:Drivers/STM32F4xx_HAL_Driver/Src/stm32f4xx_hal_hcd.c **** 
 595:Drivers/STM32F4xx_HAL_Driver/Src/stm32f4xx_hal_hcd.c ****       HCD_RXQLVL_IRQHandler(hhcd);
 596:Drivers/STM32F4xx_HAL_Driver/Src/stm32f4xx_hal_hcd.c **** 
 597:Drivers/STM32F4xx_HAL_Driver/Src/stm32f4xx_hal_hcd.c ****       USB_UNMASK_INTERRUPT(hhcd->Instance, USB_OTG_GINTSTS_RXFLVL);
 598:Drivers/STM32F4xx_HAL_Driver/Src/stm32f4xx_hal_hcd.c ****     }
 599:Drivers/STM32F4xx_HAL_Driver/Src/stm32f4xx_hal_hcd.c ****   }
 600:Drivers/STM32F4xx_HAL_Driver/Src/stm32f4xx_hal_hcd.c **** }
ARM GAS  /tmp/ccJjbwbP.s 			page 12


 601:Drivers/STM32F4xx_HAL_Driver/Src/stm32f4xx_hal_hcd.c **** 
 602:Drivers/STM32F4xx_HAL_Driver/Src/stm32f4xx_hal_hcd.c **** 
 603:Drivers/STM32F4xx_HAL_Driver/Src/stm32f4xx_hal_hcd.c **** /**
 604:Drivers/STM32F4xx_HAL_Driver/Src/stm32f4xx_hal_hcd.c ****   * @brief  Handles HCD Wakeup interrupt request.
 605:Drivers/STM32F4xx_HAL_Driver/Src/stm32f4xx_hal_hcd.c ****   * @param  hhcd HCD handle
 606:Drivers/STM32F4xx_HAL_Driver/Src/stm32f4xx_hal_hcd.c ****   * @retval HAL status
 607:Drivers/STM32F4xx_HAL_Driver/Src/stm32f4xx_hal_hcd.c ****   */
 608:Drivers/STM32F4xx_HAL_Driver/Src/stm32f4xx_hal_hcd.c **** void HAL_HCD_WKUP_IRQHandler(HCD_HandleTypeDef *hhcd)
 609:Drivers/STM32F4xx_HAL_Driver/Src/stm32f4xx_hal_hcd.c **** {
 610:Drivers/STM32F4xx_HAL_Driver/Src/stm32f4xx_hal_hcd.c ****   UNUSED(hhcd);
 611:Drivers/STM32F4xx_HAL_Driver/Src/stm32f4xx_hal_hcd.c **** }
 612:Drivers/STM32F4xx_HAL_Driver/Src/stm32f4xx_hal_hcd.c **** 
 613:Drivers/STM32F4xx_HAL_Driver/Src/stm32f4xx_hal_hcd.c **** 
 614:Drivers/STM32F4xx_HAL_Driver/Src/stm32f4xx_hal_hcd.c **** /**
 615:Drivers/STM32F4xx_HAL_Driver/Src/stm32f4xx_hal_hcd.c ****   * @brief  SOF callback.
 616:Drivers/STM32F4xx_HAL_Driver/Src/stm32f4xx_hal_hcd.c ****   * @param  hhcd HCD handle
 617:Drivers/STM32F4xx_HAL_Driver/Src/stm32f4xx_hal_hcd.c ****   * @retval None
 618:Drivers/STM32F4xx_HAL_Driver/Src/stm32f4xx_hal_hcd.c ****   */
 619:Drivers/STM32F4xx_HAL_Driver/Src/stm32f4xx_hal_hcd.c **** __weak void HAL_HCD_SOF_Callback(HCD_HandleTypeDef *hhcd)
 620:Drivers/STM32F4xx_HAL_Driver/Src/stm32f4xx_hal_hcd.c **** {
 621:Drivers/STM32F4xx_HAL_Driver/Src/stm32f4xx_hal_hcd.c ****   /* Prevent unused argument(s) compilation warning */
 622:Drivers/STM32F4xx_HAL_Driver/Src/stm32f4xx_hal_hcd.c ****   UNUSED(hhcd);
 623:Drivers/STM32F4xx_HAL_Driver/Src/stm32f4xx_hal_hcd.c **** 
 624:Drivers/STM32F4xx_HAL_Driver/Src/stm32f4xx_hal_hcd.c ****   /* NOTE : This function should not be modified, when the callback is needed,
 625:Drivers/STM32F4xx_HAL_Driver/Src/stm32f4xx_hal_hcd.c ****             the HAL_HCD_SOF_Callback could be implemented in the user file
 626:Drivers/STM32F4xx_HAL_Driver/Src/stm32f4xx_hal_hcd.c ****    */
 627:Drivers/STM32F4xx_HAL_Driver/Src/stm32f4xx_hal_hcd.c **** }
 628:Drivers/STM32F4xx_HAL_Driver/Src/stm32f4xx_hal_hcd.c **** 
 629:Drivers/STM32F4xx_HAL_Driver/Src/stm32f4xx_hal_hcd.c **** /**
 630:Drivers/STM32F4xx_HAL_Driver/Src/stm32f4xx_hal_hcd.c ****   * @brief Connection Event callback.
 631:Drivers/STM32F4xx_HAL_Driver/Src/stm32f4xx_hal_hcd.c ****   * @param  hhcd HCD handle
 632:Drivers/STM32F4xx_HAL_Driver/Src/stm32f4xx_hal_hcd.c ****   * @retval None
 633:Drivers/STM32F4xx_HAL_Driver/Src/stm32f4xx_hal_hcd.c ****   */
 634:Drivers/STM32F4xx_HAL_Driver/Src/stm32f4xx_hal_hcd.c **** __weak void HAL_HCD_Connect_Callback(HCD_HandleTypeDef *hhcd)
 635:Drivers/STM32F4xx_HAL_Driver/Src/stm32f4xx_hal_hcd.c **** {
 636:Drivers/STM32F4xx_HAL_Driver/Src/stm32f4xx_hal_hcd.c ****   /* Prevent unused argument(s) compilation warning */
 637:Drivers/STM32F4xx_HAL_Driver/Src/stm32f4xx_hal_hcd.c ****   UNUSED(hhcd);
 638:Drivers/STM32F4xx_HAL_Driver/Src/stm32f4xx_hal_hcd.c **** 
 639:Drivers/STM32F4xx_HAL_Driver/Src/stm32f4xx_hal_hcd.c ****   /* NOTE : This function should not be modified, when the callback is needed,
 640:Drivers/STM32F4xx_HAL_Driver/Src/stm32f4xx_hal_hcd.c ****             the HAL_HCD_Connect_Callback could be implemented in the user file
 641:Drivers/STM32F4xx_HAL_Driver/Src/stm32f4xx_hal_hcd.c ****    */
 642:Drivers/STM32F4xx_HAL_Driver/Src/stm32f4xx_hal_hcd.c **** }
 643:Drivers/STM32F4xx_HAL_Driver/Src/stm32f4xx_hal_hcd.c **** 
 644:Drivers/STM32F4xx_HAL_Driver/Src/stm32f4xx_hal_hcd.c **** /**
 645:Drivers/STM32F4xx_HAL_Driver/Src/stm32f4xx_hal_hcd.c ****   * @brief  Disconnection Event callback.
 646:Drivers/STM32F4xx_HAL_Driver/Src/stm32f4xx_hal_hcd.c ****   * @param  hhcd HCD handle
 647:Drivers/STM32F4xx_HAL_Driver/Src/stm32f4xx_hal_hcd.c ****   * @retval None
 648:Drivers/STM32F4xx_HAL_Driver/Src/stm32f4xx_hal_hcd.c ****   */
 649:Drivers/STM32F4xx_HAL_Driver/Src/stm32f4xx_hal_hcd.c **** __weak void HAL_HCD_Disconnect_Callback(HCD_HandleTypeDef *hhcd)
 650:Drivers/STM32F4xx_HAL_Driver/Src/stm32f4xx_hal_hcd.c **** {
 651:Drivers/STM32F4xx_HAL_Driver/Src/stm32f4xx_hal_hcd.c ****   /* Prevent unused argument(s) compilation warning */
 652:Drivers/STM32F4xx_HAL_Driver/Src/stm32f4xx_hal_hcd.c ****   UNUSED(hhcd);
 653:Drivers/STM32F4xx_HAL_Driver/Src/stm32f4xx_hal_hcd.c **** 
 654:Drivers/STM32F4xx_HAL_Driver/Src/stm32f4xx_hal_hcd.c ****   /* NOTE : This function should not be modified, when the callback is needed,
 655:Drivers/STM32F4xx_HAL_Driver/Src/stm32f4xx_hal_hcd.c ****             the HAL_HCD_Disconnect_Callback could be implemented in the user file
 656:Drivers/STM32F4xx_HAL_Driver/Src/stm32f4xx_hal_hcd.c ****    */
 657:Drivers/STM32F4xx_HAL_Driver/Src/stm32f4xx_hal_hcd.c **** }
ARM GAS  /tmp/ccJjbwbP.s 			page 13


 658:Drivers/STM32F4xx_HAL_Driver/Src/stm32f4xx_hal_hcd.c **** 
 659:Drivers/STM32F4xx_HAL_Driver/Src/stm32f4xx_hal_hcd.c **** /**
 660:Drivers/STM32F4xx_HAL_Driver/Src/stm32f4xx_hal_hcd.c ****   * @brief  Port Enabled  Event callback.
 661:Drivers/STM32F4xx_HAL_Driver/Src/stm32f4xx_hal_hcd.c ****   * @param  hhcd HCD handle
 662:Drivers/STM32F4xx_HAL_Driver/Src/stm32f4xx_hal_hcd.c ****   * @retval None
 663:Drivers/STM32F4xx_HAL_Driver/Src/stm32f4xx_hal_hcd.c ****   */
 664:Drivers/STM32F4xx_HAL_Driver/Src/stm32f4xx_hal_hcd.c **** __weak void HAL_HCD_PortEnabled_Callback(HCD_HandleTypeDef *hhcd)
 665:Drivers/STM32F4xx_HAL_Driver/Src/stm32f4xx_hal_hcd.c **** {
 666:Drivers/STM32F4xx_HAL_Driver/Src/stm32f4xx_hal_hcd.c ****   /* Prevent unused argument(s) compilation warning */
 667:Drivers/STM32F4xx_HAL_Driver/Src/stm32f4xx_hal_hcd.c ****   UNUSED(hhcd);
 668:Drivers/STM32F4xx_HAL_Driver/Src/stm32f4xx_hal_hcd.c **** 
 669:Drivers/STM32F4xx_HAL_Driver/Src/stm32f4xx_hal_hcd.c ****   /* NOTE : This function should not be modified, when the callback is needed,
 670:Drivers/STM32F4xx_HAL_Driver/Src/stm32f4xx_hal_hcd.c ****             the HAL_HCD_Disconnect_Callback could be implemented in the user file
 671:Drivers/STM32F4xx_HAL_Driver/Src/stm32f4xx_hal_hcd.c ****    */
 672:Drivers/STM32F4xx_HAL_Driver/Src/stm32f4xx_hal_hcd.c **** }
 673:Drivers/STM32F4xx_HAL_Driver/Src/stm32f4xx_hal_hcd.c **** 
 674:Drivers/STM32F4xx_HAL_Driver/Src/stm32f4xx_hal_hcd.c **** /**
 675:Drivers/STM32F4xx_HAL_Driver/Src/stm32f4xx_hal_hcd.c ****   * @brief  Port Disabled  Event callback.
 676:Drivers/STM32F4xx_HAL_Driver/Src/stm32f4xx_hal_hcd.c ****   * @param  hhcd HCD handle
 677:Drivers/STM32F4xx_HAL_Driver/Src/stm32f4xx_hal_hcd.c ****   * @retval None
 678:Drivers/STM32F4xx_HAL_Driver/Src/stm32f4xx_hal_hcd.c ****   */
 679:Drivers/STM32F4xx_HAL_Driver/Src/stm32f4xx_hal_hcd.c **** __weak void HAL_HCD_PortDisabled_Callback(HCD_HandleTypeDef *hhcd)
 680:Drivers/STM32F4xx_HAL_Driver/Src/stm32f4xx_hal_hcd.c **** {
 681:Drivers/STM32F4xx_HAL_Driver/Src/stm32f4xx_hal_hcd.c ****   /* Prevent unused argument(s) compilation warning */
 682:Drivers/STM32F4xx_HAL_Driver/Src/stm32f4xx_hal_hcd.c ****   UNUSED(hhcd);
 683:Drivers/STM32F4xx_HAL_Driver/Src/stm32f4xx_hal_hcd.c **** 
 684:Drivers/STM32F4xx_HAL_Driver/Src/stm32f4xx_hal_hcd.c ****   /* NOTE : This function should not be modified, when the callback is needed,
 685:Drivers/STM32F4xx_HAL_Driver/Src/stm32f4xx_hal_hcd.c ****             the HAL_HCD_Disconnect_Callback could be implemented in the user file
 686:Drivers/STM32F4xx_HAL_Driver/Src/stm32f4xx_hal_hcd.c ****    */
 687:Drivers/STM32F4xx_HAL_Driver/Src/stm32f4xx_hal_hcd.c **** }
 688:Drivers/STM32F4xx_HAL_Driver/Src/stm32f4xx_hal_hcd.c **** 
 689:Drivers/STM32F4xx_HAL_Driver/Src/stm32f4xx_hal_hcd.c **** /**
 690:Drivers/STM32F4xx_HAL_Driver/Src/stm32f4xx_hal_hcd.c ****   * @brief  Notify URB state change callback.
 691:Drivers/STM32F4xx_HAL_Driver/Src/stm32f4xx_hal_hcd.c ****   * @param  hhcd HCD handle
 692:Drivers/STM32F4xx_HAL_Driver/Src/stm32f4xx_hal_hcd.c ****   * @param  chnum Channel number.
 693:Drivers/STM32F4xx_HAL_Driver/Src/stm32f4xx_hal_hcd.c ****   *         This parameter can be a value from 1 to 15
 694:Drivers/STM32F4xx_HAL_Driver/Src/stm32f4xx_hal_hcd.c ****   * @param  urb_state:
 695:Drivers/STM32F4xx_HAL_Driver/Src/stm32f4xx_hal_hcd.c ****   *          This parameter can be one of these values:
 696:Drivers/STM32F4xx_HAL_Driver/Src/stm32f4xx_hal_hcd.c ****   *            URB_IDLE/
 697:Drivers/STM32F4xx_HAL_Driver/Src/stm32f4xx_hal_hcd.c ****   *            URB_DONE/
 698:Drivers/STM32F4xx_HAL_Driver/Src/stm32f4xx_hal_hcd.c ****   *            URB_NOTREADY/
 699:Drivers/STM32F4xx_HAL_Driver/Src/stm32f4xx_hal_hcd.c ****   *            URB_NYET/
 700:Drivers/STM32F4xx_HAL_Driver/Src/stm32f4xx_hal_hcd.c ****   *            URB_ERROR/
 701:Drivers/STM32F4xx_HAL_Driver/Src/stm32f4xx_hal_hcd.c ****   *            URB_STALL/
 702:Drivers/STM32F4xx_HAL_Driver/Src/stm32f4xx_hal_hcd.c ****   * @retval None
 703:Drivers/STM32F4xx_HAL_Driver/Src/stm32f4xx_hal_hcd.c ****   */
 704:Drivers/STM32F4xx_HAL_Driver/Src/stm32f4xx_hal_hcd.c **** __weak void HAL_HCD_HC_NotifyURBChange_Callback(HCD_HandleTypeDef *hhcd, uint8_t chnum, HCD_URBStat
 705:Drivers/STM32F4xx_HAL_Driver/Src/stm32f4xx_hal_hcd.c **** {
 706:Drivers/STM32F4xx_HAL_Driver/Src/stm32f4xx_hal_hcd.c ****   /* Prevent unused argument(s) compilation warning */
 707:Drivers/STM32F4xx_HAL_Driver/Src/stm32f4xx_hal_hcd.c ****   UNUSED(hhcd);
 708:Drivers/STM32F4xx_HAL_Driver/Src/stm32f4xx_hal_hcd.c ****   UNUSED(chnum);
 709:Drivers/STM32F4xx_HAL_Driver/Src/stm32f4xx_hal_hcd.c ****   UNUSED(urb_state);
 710:Drivers/STM32F4xx_HAL_Driver/Src/stm32f4xx_hal_hcd.c **** 
 711:Drivers/STM32F4xx_HAL_Driver/Src/stm32f4xx_hal_hcd.c ****   /* NOTE : This function should not be modified, when the callback is needed,
 712:Drivers/STM32F4xx_HAL_Driver/Src/stm32f4xx_hal_hcd.c ****             the HAL_HCD_HC_NotifyURBChange_Callback could be implemented in the user file
 713:Drivers/STM32F4xx_HAL_Driver/Src/stm32f4xx_hal_hcd.c ****    */
 714:Drivers/STM32F4xx_HAL_Driver/Src/stm32f4xx_hal_hcd.c **** }
ARM GAS  /tmp/ccJjbwbP.s 			page 14


 715:Drivers/STM32F4xx_HAL_Driver/Src/stm32f4xx_hal_hcd.c **** 
 716:Drivers/STM32F4xx_HAL_Driver/Src/stm32f4xx_hal_hcd.c **** #if (USE_HAL_HCD_REGISTER_CALLBACKS == 1U)
 717:Drivers/STM32F4xx_HAL_Driver/Src/stm32f4xx_hal_hcd.c **** /**
 718:Drivers/STM32F4xx_HAL_Driver/Src/stm32f4xx_hal_hcd.c ****   * @brief  Register a User USB HCD Callback
 719:Drivers/STM32F4xx_HAL_Driver/Src/stm32f4xx_hal_hcd.c ****   *         To be used instead of the weak predefined callback
 720:Drivers/STM32F4xx_HAL_Driver/Src/stm32f4xx_hal_hcd.c ****   * @param  hhcd USB HCD handle
 721:Drivers/STM32F4xx_HAL_Driver/Src/stm32f4xx_hal_hcd.c ****   * @param  CallbackID ID of the callback to be registered
 722:Drivers/STM32F4xx_HAL_Driver/Src/stm32f4xx_hal_hcd.c ****   *         This parameter can be one of the following values:
 723:Drivers/STM32F4xx_HAL_Driver/Src/stm32f4xx_hal_hcd.c ****   *          @arg @ref HAL_HCD_SOF_CB_ID USB HCD SOF callback ID
 724:Drivers/STM32F4xx_HAL_Driver/Src/stm32f4xx_hal_hcd.c ****   *          @arg @ref HAL_HCD_CONNECT_CB_ID USB HCD Connect callback ID
 725:Drivers/STM32F4xx_HAL_Driver/Src/stm32f4xx_hal_hcd.c ****   *          @arg @ref HAL_HCD_DISCONNECT_CB_ID OTG HCD Disconnect callback ID
 726:Drivers/STM32F4xx_HAL_Driver/Src/stm32f4xx_hal_hcd.c ****   *          @arg @ref HAL_HCD_PORT_ENABLED_CB_ID USB HCD Port Enable callback ID
 727:Drivers/STM32F4xx_HAL_Driver/Src/stm32f4xx_hal_hcd.c ****   *          @arg @ref HAL_HCD_PORT_DISABLED_CB_ID USB HCD Port Disable callback ID
 728:Drivers/STM32F4xx_HAL_Driver/Src/stm32f4xx_hal_hcd.c ****   *          @arg @ref HAL_HCD_MSPINIT_CB_ID MspDeInit callback ID
 729:Drivers/STM32F4xx_HAL_Driver/Src/stm32f4xx_hal_hcd.c ****   *          @arg @ref HAL_HCD_MSPDEINIT_CB_ID MspDeInit callback ID
 730:Drivers/STM32F4xx_HAL_Driver/Src/stm32f4xx_hal_hcd.c ****   * @param  pCallback pointer to the Callback function
 731:Drivers/STM32F4xx_HAL_Driver/Src/stm32f4xx_hal_hcd.c ****   * @retval HAL status
 732:Drivers/STM32F4xx_HAL_Driver/Src/stm32f4xx_hal_hcd.c ****   */
 733:Drivers/STM32F4xx_HAL_Driver/Src/stm32f4xx_hal_hcd.c **** HAL_StatusTypeDef HAL_HCD_RegisterCallback(HCD_HandleTypeDef *hhcd,
 734:Drivers/STM32F4xx_HAL_Driver/Src/stm32f4xx_hal_hcd.c ****                                            HAL_HCD_CallbackIDTypeDef CallbackID,
 735:Drivers/STM32F4xx_HAL_Driver/Src/stm32f4xx_hal_hcd.c ****                                            pHCD_CallbackTypeDef pCallback)
 736:Drivers/STM32F4xx_HAL_Driver/Src/stm32f4xx_hal_hcd.c **** {
 737:Drivers/STM32F4xx_HAL_Driver/Src/stm32f4xx_hal_hcd.c ****   HAL_StatusTypeDef status = HAL_OK;
 738:Drivers/STM32F4xx_HAL_Driver/Src/stm32f4xx_hal_hcd.c **** 
 739:Drivers/STM32F4xx_HAL_Driver/Src/stm32f4xx_hal_hcd.c ****   if (pCallback == NULL)
 740:Drivers/STM32F4xx_HAL_Driver/Src/stm32f4xx_hal_hcd.c ****   {
 741:Drivers/STM32F4xx_HAL_Driver/Src/stm32f4xx_hal_hcd.c ****     /* Update the error code */
 742:Drivers/STM32F4xx_HAL_Driver/Src/stm32f4xx_hal_hcd.c ****     hhcd->ErrorCode |= HAL_HCD_ERROR_INVALID_CALLBACK;
 743:Drivers/STM32F4xx_HAL_Driver/Src/stm32f4xx_hal_hcd.c ****     return HAL_ERROR;
 744:Drivers/STM32F4xx_HAL_Driver/Src/stm32f4xx_hal_hcd.c ****   }
 745:Drivers/STM32F4xx_HAL_Driver/Src/stm32f4xx_hal_hcd.c ****   /* Process locked */
 746:Drivers/STM32F4xx_HAL_Driver/Src/stm32f4xx_hal_hcd.c ****   __HAL_LOCK(hhcd);
 747:Drivers/STM32F4xx_HAL_Driver/Src/stm32f4xx_hal_hcd.c **** 
 748:Drivers/STM32F4xx_HAL_Driver/Src/stm32f4xx_hal_hcd.c ****   if (hhcd->State == HAL_HCD_STATE_READY)
 749:Drivers/STM32F4xx_HAL_Driver/Src/stm32f4xx_hal_hcd.c ****   {
 750:Drivers/STM32F4xx_HAL_Driver/Src/stm32f4xx_hal_hcd.c ****     switch (CallbackID)
 751:Drivers/STM32F4xx_HAL_Driver/Src/stm32f4xx_hal_hcd.c ****     {
 752:Drivers/STM32F4xx_HAL_Driver/Src/stm32f4xx_hal_hcd.c ****       case HAL_HCD_SOF_CB_ID :
 753:Drivers/STM32F4xx_HAL_Driver/Src/stm32f4xx_hal_hcd.c ****         hhcd->SOFCallback = pCallback;
 754:Drivers/STM32F4xx_HAL_Driver/Src/stm32f4xx_hal_hcd.c ****         break;
 755:Drivers/STM32F4xx_HAL_Driver/Src/stm32f4xx_hal_hcd.c **** 
 756:Drivers/STM32F4xx_HAL_Driver/Src/stm32f4xx_hal_hcd.c ****       case HAL_HCD_CONNECT_CB_ID :
 757:Drivers/STM32F4xx_HAL_Driver/Src/stm32f4xx_hal_hcd.c ****         hhcd->ConnectCallback = pCallback;
 758:Drivers/STM32F4xx_HAL_Driver/Src/stm32f4xx_hal_hcd.c ****         break;
 759:Drivers/STM32F4xx_HAL_Driver/Src/stm32f4xx_hal_hcd.c **** 
 760:Drivers/STM32F4xx_HAL_Driver/Src/stm32f4xx_hal_hcd.c ****       case HAL_HCD_DISCONNECT_CB_ID :
 761:Drivers/STM32F4xx_HAL_Driver/Src/stm32f4xx_hal_hcd.c ****         hhcd->DisconnectCallback = pCallback;
 762:Drivers/STM32F4xx_HAL_Driver/Src/stm32f4xx_hal_hcd.c ****         break;
 763:Drivers/STM32F4xx_HAL_Driver/Src/stm32f4xx_hal_hcd.c **** 
 764:Drivers/STM32F4xx_HAL_Driver/Src/stm32f4xx_hal_hcd.c ****       case HAL_HCD_PORT_ENABLED_CB_ID :
 765:Drivers/STM32F4xx_HAL_Driver/Src/stm32f4xx_hal_hcd.c ****         hhcd->PortEnabledCallback = pCallback;
 766:Drivers/STM32F4xx_HAL_Driver/Src/stm32f4xx_hal_hcd.c ****         break;
 767:Drivers/STM32F4xx_HAL_Driver/Src/stm32f4xx_hal_hcd.c **** 
 768:Drivers/STM32F4xx_HAL_Driver/Src/stm32f4xx_hal_hcd.c ****       case HAL_HCD_PORT_DISABLED_CB_ID :
 769:Drivers/STM32F4xx_HAL_Driver/Src/stm32f4xx_hal_hcd.c ****         hhcd->PortDisabledCallback = pCallback;
 770:Drivers/STM32F4xx_HAL_Driver/Src/stm32f4xx_hal_hcd.c ****         break;
 771:Drivers/STM32F4xx_HAL_Driver/Src/stm32f4xx_hal_hcd.c **** 
ARM GAS  /tmp/ccJjbwbP.s 			page 15


 772:Drivers/STM32F4xx_HAL_Driver/Src/stm32f4xx_hal_hcd.c ****       case HAL_HCD_MSPINIT_CB_ID :
 773:Drivers/STM32F4xx_HAL_Driver/Src/stm32f4xx_hal_hcd.c ****         hhcd->MspInitCallback = pCallback;
 774:Drivers/STM32F4xx_HAL_Driver/Src/stm32f4xx_hal_hcd.c ****         break;
 775:Drivers/STM32F4xx_HAL_Driver/Src/stm32f4xx_hal_hcd.c **** 
 776:Drivers/STM32F4xx_HAL_Driver/Src/stm32f4xx_hal_hcd.c ****       case HAL_HCD_MSPDEINIT_CB_ID :
 777:Drivers/STM32F4xx_HAL_Driver/Src/stm32f4xx_hal_hcd.c ****         hhcd->MspDeInitCallback = pCallback;
 778:Drivers/STM32F4xx_HAL_Driver/Src/stm32f4xx_hal_hcd.c ****         break;
 779:Drivers/STM32F4xx_HAL_Driver/Src/stm32f4xx_hal_hcd.c **** 
 780:Drivers/STM32F4xx_HAL_Driver/Src/stm32f4xx_hal_hcd.c ****       default :
 781:Drivers/STM32F4xx_HAL_Driver/Src/stm32f4xx_hal_hcd.c ****         /* Update the error code */
 782:Drivers/STM32F4xx_HAL_Driver/Src/stm32f4xx_hal_hcd.c ****         hhcd->ErrorCode |= HAL_HCD_ERROR_INVALID_CALLBACK;
 783:Drivers/STM32F4xx_HAL_Driver/Src/stm32f4xx_hal_hcd.c ****         /* Return error status */
 784:Drivers/STM32F4xx_HAL_Driver/Src/stm32f4xx_hal_hcd.c ****         status =  HAL_ERROR;
 785:Drivers/STM32F4xx_HAL_Driver/Src/stm32f4xx_hal_hcd.c ****         break;
 786:Drivers/STM32F4xx_HAL_Driver/Src/stm32f4xx_hal_hcd.c ****     }
 787:Drivers/STM32F4xx_HAL_Driver/Src/stm32f4xx_hal_hcd.c ****   }
 788:Drivers/STM32F4xx_HAL_Driver/Src/stm32f4xx_hal_hcd.c ****   else if (hhcd->State == HAL_HCD_STATE_RESET)
 789:Drivers/STM32F4xx_HAL_Driver/Src/stm32f4xx_hal_hcd.c ****   {
 790:Drivers/STM32F4xx_HAL_Driver/Src/stm32f4xx_hal_hcd.c ****     switch (CallbackID)
 791:Drivers/STM32F4xx_HAL_Driver/Src/stm32f4xx_hal_hcd.c ****     {
 792:Drivers/STM32F4xx_HAL_Driver/Src/stm32f4xx_hal_hcd.c ****       case HAL_HCD_MSPINIT_CB_ID :
 793:Drivers/STM32F4xx_HAL_Driver/Src/stm32f4xx_hal_hcd.c ****         hhcd->MspInitCallback = pCallback;
 794:Drivers/STM32F4xx_HAL_Driver/Src/stm32f4xx_hal_hcd.c ****         break;
 795:Drivers/STM32F4xx_HAL_Driver/Src/stm32f4xx_hal_hcd.c **** 
 796:Drivers/STM32F4xx_HAL_Driver/Src/stm32f4xx_hal_hcd.c ****       case HAL_HCD_MSPDEINIT_CB_ID :
 797:Drivers/STM32F4xx_HAL_Driver/Src/stm32f4xx_hal_hcd.c ****         hhcd->MspDeInitCallback = pCallback;
 798:Drivers/STM32F4xx_HAL_Driver/Src/stm32f4xx_hal_hcd.c ****         break;
 799:Drivers/STM32F4xx_HAL_Driver/Src/stm32f4xx_hal_hcd.c **** 
 800:Drivers/STM32F4xx_HAL_Driver/Src/stm32f4xx_hal_hcd.c ****       default :
 801:Drivers/STM32F4xx_HAL_Driver/Src/stm32f4xx_hal_hcd.c ****         /* Update the error code */
 802:Drivers/STM32F4xx_HAL_Driver/Src/stm32f4xx_hal_hcd.c ****         hhcd->ErrorCode |= HAL_HCD_ERROR_INVALID_CALLBACK;
 803:Drivers/STM32F4xx_HAL_Driver/Src/stm32f4xx_hal_hcd.c ****         /* Return error status */
 804:Drivers/STM32F4xx_HAL_Driver/Src/stm32f4xx_hal_hcd.c ****         status =  HAL_ERROR;
 805:Drivers/STM32F4xx_HAL_Driver/Src/stm32f4xx_hal_hcd.c ****         break;
 806:Drivers/STM32F4xx_HAL_Driver/Src/stm32f4xx_hal_hcd.c ****     }
 807:Drivers/STM32F4xx_HAL_Driver/Src/stm32f4xx_hal_hcd.c ****   }
 808:Drivers/STM32F4xx_HAL_Driver/Src/stm32f4xx_hal_hcd.c ****   else
 809:Drivers/STM32F4xx_HAL_Driver/Src/stm32f4xx_hal_hcd.c ****   {
 810:Drivers/STM32F4xx_HAL_Driver/Src/stm32f4xx_hal_hcd.c ****     /* Update the error code */
 811:Drivers/STM32F4xx_HAL_Driver/Src/stm32f4xx_hal_hcd.c ****     hhcd->ErrorCode |= HAL_HCD_ERROR_INVALID_CALLBACK;
 812:Drivers/STM32F4xx_HAL_Driver/Src/stm32f4xx_hal_hcd.c ****     /* Return error status */
 813:Drivers/STM32F4xx_HAL_Driver/Src/stm32f4xx_hal_hcd.c ****     status =  HAL_ERROR;
 814:Drivers/STM32F4xx_HAL_Driver/Src/stm32f4xx_hal_hcd.c ****   }
 815:Drivers/STM32F4xx_HAL_Driver/Src/stm32f4xx_hal_hcd.c **** 
 816:Drivers/STM32F4xx_HAL_Driver/Src/stm32f4xx_hal_hcd.c ****   /* Release Lock */
 817:Drivers/STM32F4xx_HAL_Driver/Src/stm32f4xx_hal_hcd.c ****   __HAL_UNLOCK(hhcd);
 818:Drivers/STM32F4xx_HAL_Driver/Src/stm32f4xx_hal_hcd.c ****   return status;
 819:Drivers/STM32F4xx_HAL_Driver/Src/stm32f4xx_hal_hcd.c **** }
 820:Drivers/STM32F4xx_HAL_Driver/Src/stm32f4xx_hal_hcd.c **** 
 821:Drivers/STM32F4xx_HAL_Driver/Src/stm32f4xx_hal_hcd.c **** /**
 822:Drivers/STM32F4xx_HAL_Driver/Src/stm32f4xx_hal_hcd.c ****   * @brief  Unregister an USB HCD Callback
 823:Drivers/STM32F4xx_HAL_Driver/Src/stm32f4xx_hal_hcd.c ****   *         USB HCD callback is redirected to the weak predefined callback
 824:Drivers/STM32F4xx_HAL_Driver/Src/stm32f4xx_hal_hcd.c ****   * @param  hhcd USB HCD handle
 825:Drivers/STM32F4xx_HAL_Driver/Src/stm32f4xx_hal_hcd.c ****   * @param  CallbackID ID of the callback to be unregistered
 826:Drivers/STM32F4xx_HAL_Driver/Src/stm32f4xx_hal_hcd.c ****   *         This parameter can be one of the following values:
 827:Drivers/STM32F4xx_HAL_Driver/Src/stm32f4xx_hal_hcd.c ****   *          @arg @ref HAL_HCD_SOF_CB_ID USB HCD SOF callback ID
 828:Drivers/STM32F4xx_HAL_Driver/Src/stm32f4xx_hal_hcd.c ****   *          @arg @ref HAL_HCD_CONNECT_CB_ID USB HCD Connect callback ID
ARM GAS  /tmp/ccJjbwbP.s 			page 16


 829:Drivers/STM32F4xx_HAL_Driver/Src/stm32f4xx_hal_hcd.c ****   *          @arg @ref HAL_HCD_DISCONNECT_CB_ID OTG HCD Disconnect callback ID
 830:Drivers/STM32F4xx_HAL_Driver/Src/stm32f4xx_hal_hcd.c ****   *          @arg @ref HAL_HCD_PORT_ENABLED_CB_ID USB HCD Port Enabled callback ID
 831:Drivers/STM32F4xx_HAL_Driver/Src/stm32f4xx_hal_hcd.c ****   *          @arg @ref HAL_HCD_PORT_DISABLED_CB_ID USB HCD Port Disabled callback ID
 832:Drivers/STM32F4xx_HAL_Driver/Src/stm32f4xx_hal_hcd.c ****   *          @arg @ref HAL_HCD_MSPINIT_CB_ID MspDeInit callback ID
 833:Drivers/STM32F4xx_HAL_Driver/Src/stm32f4xx_hal_hcd.c ****   *          @arg @ref HAL_HCD_MSPDEINIT_CB_ID MspDeInit callback ID
 834:Drivers/STM32F4xx_HAL_Driver/Src/stm32f4xx_hal_hcd.c ****   * @retval HAL status
 835:Drivers/STM32F4xx_HAL_Driver/Src/stm32f4xx_hal_hcd.c ****   */
 836:Drivers/STM32F4xx_HAL_Driver/Src/stm32f4xx_hal_hcd.c **** HAL_StatusTypeDef HAL_HCD_UnRegisterCallback(HCD_HandleTypeDef *hhcd, HAL_HCD_CallbackIDTypeDef Cal
 837:Drivers/STM32F4xx_HAL_Driver/Src/stm32f4xx_hal_hcd.c **** {
 838:Drivers/STM32F4xx_HAL_Driver/Src/stm32f4xx_hal_hcd.c ****   HAL_StatusTypeDef status = HAL_OK;
 839:Drivers/STM32F4xx_HAL_Driver/Src/stm32f4xx_hal_hcd.c **** 
 840:Drivers/STM32F4xx_HAL_Driver/Src/stm32f4xx_hal_hcd.c ****   /* Process locked */
 841:Drivers/STM32F4xx_HAL_Driver/Src/stm32f4xx_hal_hcd.c ****   __HAL_LOCK(hhcd);
 842:Drivers/STM32F4xx_HAL_Driver/Src/stm32f4xx_hal_hcd.c **** 
 843:Drivers/STM32F4xx_HAL_Driver/Src/stm32f4xx_hal_hcd.c ****   /* Setup Legacy weak Callbacks  */
 844:Drivers/STM32F4xx_HAL_Driver/Src/stm32f4xx_hal_hcd.c ****   if (hhcd->State == HAL_HCD_STATE_READY)
 845:Drivers/STM32F4xx_HAL_Driver/Src/stm32f4xx_hal_hcd.c ****   {
 846:Drivers/STM32F4xx_HAL_Driver/Src/stm32f4xx_hal_hcd.c ****     switch (CallbackID)
 847:Drivers/STM32F4xx_HAL_Driver/Src/stm32f4xx_hal_hcd.c ****     {
 848:Drivers/STM32F4xx_HAL_Driver/Src/stm32f4xx_hal_hcd.c ****       case HAL_HCD_SOF_CB_ID :
 849:Drivers/STM32F4xx_HAL_Driver/Src/stm32f4xx_hal_hcd.c ****         hhcd->SOFCallback = HAL_HCD_SOF_Callback;
 850:Drivers/STM32F4xx_HAL_Driver/Src/stm32f4xx_hal_hcd.c ****         break;
 851:Drivers/STM32F4xx_HAL_Driver/Src/stm32f4xx_hal_hcd.c **** 
 852:Drivers/STM32F4xx_HAL_Driver/Src/stm32f4xx_hal_hcd.c ****       case HAL_HCD_CONNECT_CB_ID :
 853:Drivers/STM32F4xx_HAL_Driver/Src/stm32f4xx_hal_hcd.c ****         hhcd->ConnectCallback = HAL_HCD_Connect_Callback;
 854:Drivers/STM32F4xx_HAL_Driver/Src/stm32f4xx_hal_hcd.c ****         break;
 855:Drivers/STM32F4xx_HAL_Driver/Src/stm32f4xx_hal_hcd.c **** 
 856:Drivers/STM32F4xx_HAL_Driver/Src/stm32f4xx_hal_hcd.c ****       case HAL_HCD_DISCONNECT_CB_ID :
 857:Drivers/STM32F4xx_HAL_Driver/Src/stm32f4xx_hal_hcd.c ****         hhcd->DisconnectCallback = HAL_HCD_Disconnect_Callback;
 858:Drivers/STM32F4xx_HAL_Driver/Src/stm32f4xx_hal_hcd.c ****         break;
 859:Drivers/STM32F4xx_HAL_Driver/Src/stm32f4xx_hal_hcd.c **** 
 860:Drivers/STM32F4xx_HAL_Driver/Src/stm32f4xx_hal_hcd.c ****       case HAL_HCD_PORT_ENABLED_CB_ID :
 861:Drivers/STM32F4xx_HAL_Driver/Src/stm32f4xx_hal_hcd.c ****         hhcd->PortEnabledCallback = HAL_HCD_PortEnabled_Callback;
 862:Drivers/STM32F4xx_HAL_Driver/Src/stm32f4xx_hal_hcd.c ****         break;
 863:Drivers/STM32F4xx_HAL_Driver/Src/stm32f4xx_hal_hcd.c **** 
 864:Drivers/STM32F4xx_HAL_Driver/Src/stm32f4xx_hal_hcd.c ****       case HAL_HCD_PORT_DISABLED_CB_ID :
 865:Drivers/STM32F4xx_HAL_Driver/Src/stm32f4xx_hal_hcd.c ****         hhcd->PortDisabledCallback = HAL_HCD_PortDisabled_Callback;
 866:Drivers/STM32F4xx_HAL_Driver/Src/stm32f4xx_hal_hcd.c ****         break;
 867:Drivers/STM32F4xx_HAL_Driver/Src/stm32f4xx_hal_hcd.c **** 
 868:Drivers/STM32F4xx_HAL_Driver/Src/stm32f4xx_hal_hcd.c ****       case HAL_HCD_MSPINIT_CB_ID :
 869:Drivers/STM32F4xx_HAL_Driver/Src/stm32f4xx_hal_hcd.c ****         hhcd->MspInitCallback = HAL_HCD_MspInit;
 870:Drivers/STM32F4xx_HAL_Driver/Src/stm32f4xx_hal_hcd.c ****         break;
 871:Drivers/STM32F4xx_HAL_Driver/Src/stm32f4xx_hal_hcd.c **** 
 872:Drivers/STM32F4xx_HAL_Driver/Src/stm32f4xx_hal_hcd.c ****       case HAL_HCD_MSPDEINIT_CB_ID :
 873:Drivers/STM32F4xx_HAL_Driver/Src/stm32f4xx_hal_hcd.c ****         hhcd->MspDeInitCallback = HAL_HCD_MspDeInit;
 874:Drivers/STM32F4xx_HAL_Driver/Src/stm32f4xx_hal_hcd.c ****         break;
 875:Drivers/STM32F4xx_HAL_Driver/Src/stm32f4xx_hal_hcd.c **** 
 876:Drivers/STM32F4xx_HAL_Driver/Src/stm32f4xx_hal_hcd.c ****       default :
 877:Drivers/STM32F4xx_HAL_Driver/Src/stm32f4xx_hal_hcd.c ****         /* Update the error code */
 878:Drivers/STM32F4xx_HAL_Driver/Src/stm32f4xx_hal_hcd.c ****         hhcd->ErrorCode |= HAL_HCD_ERROR_INVALID_CALLBACK;
 879:Drivers/STM32F4xx_HAL_Driver/Src/stm32f4xx_hal_hcd.c **** 
 880:Drivers/STM32F4xx_HAL_Driver/Src/stm32f4xx_hal_hcd.c ****         /* Return error status */
 881:Drivers/STM32F4xx_HAL_Driver/Src/stm32f4xx_hal_hcd.c ****         status =  HAL_ERROR;
 882:Drivers/STM32F4xx_HAL_Driver/Src/stm32f4xx_hal_hcd.c ****         break;
 883:Drivers/STM32F4xx_HAL_Driver/Src/stm32f4xx_hal_hcd.c ****     }
 884:Drivers/STM32F4xx_HAL_Driver/Src/stm32f4xx_hal_hcd.c ****   }
 885:Drivers/STM32F4xx_HAL_Driver/Src/stm32f4xx_hal_hcd.c ****   else if (hhcd->State == HAL_HCD_STATE_RESET)
ARM GAS  /tmp/ccJjbwbP.s 			page 17


 886:Drivers/STM32F4xx_HAL_Driver/Src/stm32f4xx_hal_hcd.c ****   {
 887:Drivers/STM32F4xx_HAL_Driver/Src/stm32f4xx_hal_hcd.c ****     switch (CallbackID)
 888:Drivers/STM32F4xx_HAL_Driver/Src/stm32f4xx_hal_hcd.c ****     {
 889:Drivers/STM32F4xx_HAL_Driver/Src/stm32f4xx_hal_hcd.c ****       case HAL_HCD_MSPINIT_CB_ID :
 890:Drivers/STM32F4xx_HAL_Driver/Src/stm32f4xx_hal_hcd.c ****         hhcd->MspInitCallback = HAL_HCD_MspInit;
 891:Drivers/STM32F4xx_HAL_Driver/Src/stm32f4xx_hal_hcd.c ****         break;
 892:Drivers/STM32F4xx_HAL_Driver/Src/stm32f4xx_hal_hcd.c **** 
 893:Drivers/STM32F4xx_HAL_Driver/Src/stm32f4xx_hal_hcd.c ****       case HAL_HCD_MSPDEINIT_CB_ID :
 894:Drivers/STM32F4xx_HAL_Driver/Src/stm32f4xx_hal_hcd.c ****         hhcd->MspDeInitCallback = HAL_HCD_MspDeInit;
 895:Drivers/STM32F4xx_HAL_Driver/Src/stm32f4xx_hal_hcd.c ****         break;
 896:Drivers/STM32F4xx_HAL_Driver/Src/stm32f4xx_hal_hcd.c **** 
 897:Drivers/STM32F4xx_HAL_Driver/Src/stm32f4xx_hal_hcd.c ****       default :
 898:Drivers/STM32F4xx_HAL_Driver/Src/stm32f4xx_hal_hcd.c ****         /* Update the error code */
 899:Drivers/STM32F4xx_HAL_Driver/Src/stm32f4xx_hal_hcd.c ****         hhcd->ErrorCode |= HAL_HCD_ERROR_INVALID_CALLBACK;
 900:Drivers/STM32F4xx_HAL_Driver/Src/stm32f4xx_hal_hcd.c **** 
 901:Drivers/STM32F4xx_HAL_Driver/Src/stm32f4xx_hal_hcd.c ****         /* Return error status */
 902:Drivers/STM32F4xx_HAL_Driver/Src/stm32f4xx_hal_hcd.c ****         status =  HAL_ERROR;
 903:Drivers/STM32F4xx_HAL_Driver/Src/stm32f4xx_hal_hcd.c ****         break;
 904:Drivers/STM32F4xx_HAL_Driver/Src/stm32f4xx_hal_hcd.c ****     }
 905:Drivers/STM32F4xx_HAL_Driver/Src/stm32f4xx_hal_hcd.c ****   }
 906:Drivers/STM32F4xx_HAL_Driver/Src/stm32f4xx_hal_hcd.c ****   else
 907:Drivers/STM32F4xx_HAL_Driver/Src/stm32f4xx_hal_hcd.c ****   {
 908:Drivers/STM32F4xx_HAL_Driver/Src/stm32f4xx_hal_hcd.c ****     /* Update the error code */
 909:Drivers/STM32F4xx_HAL_Driver/Src/stm32f4xx_hal_hcd.c ****     hhcd->ErrorCode |= HAL_HCD_ERROR_INVALID_CALLBACK;
 910:Drivers/STM32F4xx_HAL_Driver/Src/stm32f4xx_hal_hcd.c **** 
 911:Drivers/STM32F4xx_HAL_Driver/Src/stm32f4xx_hal_hcd.c ****     /* Return error status */
 912:Drivers/STM32F4xx_HAL_Driver/Src/stm32f4xx_hal_hcd.c ****     status =  HAL_ERROR;
 913:Drivers/STM32F4xx_HAL_Driver/Src/stm32f4xx_hal_hcd.c ****   }
 914:Drivers/STM32F4xx_HAL_Driver/Src/stm32f4xx_hal_hcd.c **** 
 915:Drivers/STM32F4xx_HAL_Driver/Src/stm32f4xx_hal_hcd.c ****   /* Release Lock */
 916:Drivers/STM32F4xx_HAL_Driver/Src/stm32f4xx_hal_hcd.c ****   __HAL_UNLOCK(hhcd);
 917:Drivers/STM32F4xx_HAL_Driver/Src/stm32f4xx_hal_hcd.c ****   return status;
 918:Drivers/STM32F4xx_HAL_Driver/Src/stm32f4xx_hal_hcd.c **** }
 919:Drivers/STM32F4xx_HAL_Driver/Src/stm32f4xx_hal_hcd.c **** 
 920:Drivers/STM32F4xx_HAL_Driver/Src/stm32f4xx_hal_hcd.c **** /**
 921:Drivers/STM32F4xx_HAL_Driver/Src/stm32f4xx_hal_hcd.c ****   * @brief  Register USB HCD Host Channel Notify URB Change Callback
 922:Drivers/STM32F4xx_HAL_Driver/Src/stm32f4xx_hal_hcd.c ****   *         To be used instead of the weak HAL_HCD_HC_NotifyURBChange_Callback() predefined callbac
 923:Drivers/STM32F4xx_HAL_Driver/Src/stm32f4xx_hal_hcd.c ****   * @param  hhcd HCD handle
 924:Drivers/STM32F4xx_HAL_Driver/Src/stm32f4xx_hal_hcd.c ****   * @param  pCallback pointer to the USB HCD Host Channel Notify URB Change Callback function
 925:Drivers/STM32F4xx_HAL_Driver/Src/stm32f4xx_hal_hcd.c ****   * @retval HAL status
 926:Drivers/STM32F4xx_HAL_Driver/Src/stm32f4xx_hal_hcd.c ****   */
 927:Drivers/STM32F4xx_HAL_Driver/Src/stm32f4xx_hal_hcd.c **** HAL_StatusTypeDef HAL_HCD_RegisterHC_NotifyURBChangeCallback(HCD_HandleTypeDef *hhcd,
 928:Drivers/STM32F4xx_HAL_Driver/Src/stm32f4xx_hal_hcd.c ****                                                              pHCD_HC_NotifyURBChangeCallbackTypeDef
 929:Drivers/STM32F4xx_HAL_Driver/Src/stm32f4xx_hal_hcd.c **** {
 930:Drivers/STM32F4xx_HAL_Driver/Src/stm32f4xx_hal_hcd.c ****   HAL_StatusTypeDef status = HAL_OK;
 931:Drivers/STM32F4xx_HAL_Driver/Src/stm32f4xx_hal_hcd.c **** 
 932:Drivers/STM32F4xx_HAL_Driver/Src/stm32f4xx_hal_hcd.c ****   if (pCallback == NULL)
 933:Drivers/STM32F4xx_HAL_Driver/Src/stm32f4xx_hal_hcd.c ****   {
 934:Drivers/STM32F4xx_HAL_Driver/Src/stm32f4xx_hal_hcd.c ****     /* Update the error code */
 935:Drivers/STM32F4xx_HAL_Driver/Src/stm32f4xx_hal_hcd.c ****     hhcd->ErrorCode |= HAL_HCD_ERROR_INVALID_CALLBACK;
 936:Drivers/STM32F4xx_HAL_Driver/Src/stm32f4xx_hal_hcd.c **** 
 937:Drivers/STM32F4xx_HAL_Driver/Src/stm32f4xx_hal_hcd.c ****     return HAL_ERROR;
 938:Drivers/STM32F4xx_HAL_Driver/Src/stm32f4xx_hal_hcd.c ****   }
 939:Drivers/STM32F4xx_HAL_Driver/Src/stm32f4xx_hal_hcd.c **** 
 940:Drivers/STM32F4xx_HAL_Driver/Src/stm32f4xx_hal_hcd.c ****   /* Process locked */
 941:Drivers/STM32F4xx_HAL_Driver/Src/stm32f4xx_hal_hcd.c ****   __HAL_LOCK(hhcd);
 942:Drivers/STM32F4xx_HAL_Driver/Src/stm32f4xx_hal_hcd.c **** 
ARM GAS  /tmp/ccJjbwbP.s 			page 18


 943:Drivers/STM32F4xx_HAL_Driver/Src/stm32f4xx_hal_hcd.c ****   if (hhcd->State == HAL_HCD_STATE_READY)
 944:Drivers/STM32F4xx_HAL_Driver/Src/stm32f4xx_hal_hcd.c ****   {
 945:Drivers/STM32F4xx_HAL_Driver/Src/stm32f4xx_hal_hcd.c ****     hhcd->HC_NotifyURBChangeCallback = pCallback;
 946:Drivers/STM32F4xx_HAL_Driver/Src/stm32f4xx_hal_hcd.c ****   }
 947:Drivers/STM32F4xx_HAL_Driver/Src/stm32f4xx_hal_hcd.c ****   else
 948:Drivers/STM32F4xx_HAL_Driver/Src/stm32f4xx_hal_hcd.c ****   {
 949:Drivers/STM32F4xx_HAL_Driver/Src/stm32f4xx_hal_hcd.c ****     /* Update the error code */
 950:Drivers/STM32F4xx_HAL_Driver/Src/stm32f4xx_hal_hcd.c ****     hhcd->ErrorCode |= HAL_HCD_ERROR_INVALID_CALLBACK;
 951:Drivers/STM32F4xx_HAL_Driver/Src/stm32f4xx_hal_hcd.c **** 
 952:Drivers/STM32F4xx_HAL_Driver/Src/stm32f4xx_hal_hcd.c ****     /* Return error status */
 953:Drivers/STM32F4xx_HAL_Driver/Src/stm32f4xx_hal_hcd.c ****     status =  HAL_ERROR;
 954:Drivers/STM32F4xx_HAL_Driver/Src/stm32f4xx_hal_hcd.c ****   }
 955:Drivers/STM32F4xx_HAL_Driver/Src/stm32f4xx_hal_hcd.c **** 
 956:Drivers/STM32F4xx_HAL_Driver/Src/stm32f4xx_hal_hcd.c ****   /* Release Lock */
 957:Drivers/STM32F4xx_HAL_Driver/Src/stm32f4xx_hal_hcd.c ****   __HAL_UNLOCK(hhcd);
 958:Drivers/STM32F4xx_HAL_Driver/Src/stm32f4xx_hal_hcd.c **** 
 959:Drivers/STM32F4xx_HAL_Driver/Src/stm32f4xx_hal_hcd.c ****   return status;
 960:Drivers/STM32F4xx_HAL_Driver/Src/stm32f4xx_hal_hcd.c **** }
 961:Drivers/STM32F4xx_HAL_Driver/Src/stm32f4xx_hal_hcd.c **** 
 962:Drivers/STM32F4xx_HAL_Driver/Src/stm32f4xx_hal_hcd.c **** /**
 963:Drivers/STM32F4xx_HAL_Driver/Src/stm32f4xx_hal_hcd.c ****   * @brief  Unregister the USB HCD Host Channel Notify URB Change Callback
 964:Drivers/STM32F4xx_HAL_Driver/Src/stm32f4xx_hal_hcd.c ****   *         USB HCD Host Channel Notify URB Change Callback is redirected to the weak HAL_HCD_HC_No
 965:Drivers/STM32F4xx_HAL_Driver/Src/stm32f4xx_hal_hcd.c ****   * @param  hhcd HCD handle
 966:Drivers/STM32F4xx_HAL_Driver/Src/stm32f4xx_hal_hcd.c ****   * @retval HAL status
 967:Drivers/STM32F4xx_HAL_Driver/Src/stm32f4xx_hal_hcd.c ****   */
 968:Drivers/STM32F4xx_HAL_Driver/Src/stm32f4xx_hal_hcd.c **** HAL_StatusTypeDef HAL_HCD_UnRegisterHC_NotifyURBChangeCallback(HCD_HandleTypeDef *hhcd)
 969:Drivers/STM32F4xx_HAL_Driver/Src/stm32f4xx_hal_hcd.c **** {
 970:Drivers/STM32F4xx_HAL_Driver/Src/stm32f4xx_hal_hcd.c ****   HAL_StatusTypeDef status = HAL_OK;
 971:Drivers/STM32F4xx_HAL_Driver/Src/stm32f4xx_hal_hcd.c **** 
 972:Drivers/STM32F4xx_HAL_Driver/Src/stm32f4xx_hal_hcd.c ****   /* Process locked */
 973:Drivers/STM32F4xx_HAL_Driver/Src/stm32f4xx_hal_hcd.c ****   __HAL_LOCK(hhcd);
 974:Drivers/STM32F4xx_HAL_Driver/Src/stm32f4xx_hal_hcd.c **** 
 975:Drivers/STM32F4xx_HAL_Driver/Src/stm32f4xx_hal_hcd.c ****   if (hhcd->State == HAL_HCD_STATE_READY)
 976:Drivers/STM32F4xx_HAL_Driver/Src/stm32f4xx_hal_hcd.c ****   {
 977:Drivers/STM32F4xx_HAL_Driver/Src/stm32f4xx_hal_hcd.c ****     hhcd->HC_NotifyURBChangeCallback = HAL_HCD_HC_NotifyURBChange_Callback; /* Legacy weak DataOutS
 978:Drivers/STM32F4xx_HAL_Driver/Src/stm32f4xx_hal_hcd.c ****   }
 979:Drivers/STM32F4xx_HAL_Driver/Src/stm32f4xx_hal_hcd.c ****   else
 980:Drivers/STM32F4xx_HAL_Driver/Src/stm32f4xx_hal_hcd.c ****   {
 981:Drivers/STM32F4xx_HAL_Driver/Src/stm32f4xx_hal_hcd.c ****     /* Update the error code */
 982:Drivers/STM32F4xx_HAL_Driver/Src/stm32f4xx_hal_hcd.c ****     hhcd->ErrorCode |= HAL_HCD_ERROR_INVALID_CALLBACK;
 983:Drivers/STM32F4xx_HAL_Driver/Src/stm32f4xx_hal_hcd.c **** 
 984:Drivers/STM32F4xx_HAL_Driver/Src/stm32f4xx_hal_hcd.c ****     /* Return error status */
 985:Drivers/STM32F4xx_HAL_Driver/Src/stm32f4xx_hal_hcd.c ****     status =  HAL_ERROR;
 986:Drivers/STM32F4xx_HAL_Driver/Src/stm32f4xx_hal_hcd.c ****   }
 987:Drivers/STM32F4xx_HAL_Driver/Src/stm32f4xx_hal_hcd.c **** 
 988:Drivers/STM32F4xx_HAL_Driver/Src/stm32f4xx_hal_hcd.c ****   /* Release Lock */
 989:Drivers/STM32F4xx_HAL_Driver/Src/stm32f4xx_hal_hcd.c ****   __HAL_UNLOCK(hhcd);
 990:Drivers/STM32F4xx_HAL_Driver/Src/stm32f4xx_hal_hcd.c **** 
 991:Drivers/STM32F4xx_HAL_Driver/Src/stm32f4xx_hal_hcd.c ****   return status;
 992:Drivers/STM32F4xx_HAL_Driver/Src/stm32f4xx_hal_hcd.c **** }
 993:Drivers/STM32F4xx_HAL_Driver/Src/stm32f4xx_hal_hcd.c **** #endif /* USE_HAL_HCD_REGISTER_CALLBACKS */
 994:Drivers/STM32F4xx_HAL_Driver/Src/stm32f4xx_hal_hcd.c **** 
 995:Drivers/STM32F4xx_HAL_Driver/Src/stm32f4xx_hal_hcd.c **** /**
 996:Drivers/STM32F4xx_HAL_Driver/Src/stm32f4xx_hal_hcd.c ****   * @}
 997:Drivers/STM32F4xx_HAL_Driver/Src/stm32f4xx_hal_hcd.c ****   */
 998:Drivers/STM32F4xx_HAL_Driver/Src/stm32f4xx_hal_hcd.c **** 
 999:Drivers/STM32F4xx_HAL_Driver/Src/stm32f4xx_hal_hcd.c **** /** @defgroup HCD_Exported_Functions_Group3 Peripheral Control functions
ARM GAS  /tmp/ccJjbwbP.s 			page 19


1000:Drivers/STM32F4xx_HAL_Driver/Src/stm32f4xx_hal_hcd.c ****   *  @brief   Management functions
1001:Drivers/STM32F4xx_HAL_Driver/Src/stm32f4xx_hal_hcd.c ****   *
1002:Drivers/STM32F4xx_HAL_Driver/Src/stm32f4xx_hal_hcd.c **** @verbatim
1003:Drivers/STM32F4xx_HAL_Driver/Src/stm32f4xx_hal_hcd.c ****  ===============================================================================
1004:Drivers/STM32F4xx_HAL_Driver/Src/stm32f4xx_hal_hcd.c ****                       ##### Peripheral Control functions #####
1005:Drivers/STM32F4xx_HAL_Driver/Src/stm32f4xx_hal_hcd.c ****  ===============================================================================
1006:Drivers/STM32F4xx_HAL_Driver/Src/stm32f4xx_hal_hcd.c ****     [..]
1007:Drivers/STM32F4xx_HAL_Driver/Src/stm32f4xx_hal_hcd.c ****     This subsection provides a set of functions allowing to control the HCD data
1008:Drivers/STM32F4xx_HAL_Driver/Src/stm32f4xx_hal_hcd.c ****     transfers.
1009:Drivers/STM32F4xx_HAL_Driver/Src/stm32f4xx_hal_hcd.c **** 
1010:Drivers/STM32F4xx_HAL_Driver/Src/stm32f4xx_hal_hcd.c **** @endverbatim
1011:Drivers/STM32F4xx_HAL_Driver/Src/stm32f4xx_hal_hcd.c ****   * @{
1012:Drivers/STM32F4xx_HAL_Driver/Src/stm32f4xx_hal_hcd.c ****   */
1013:Drivers/STM32F4xx_HAL_Driver/Src/stm32f4xx_hal_hcd.c **** 
1014:Drivers/STM32F4xx_HAL_Driver/Src/stm32f4xx_hal_hcd.c **** /**
1015:Drivers/STM32F4xx_HAL_Driver/Src/stm32f4xx_hal_hcd.c ****   * @brief  Start the host driver.
1016:Drivers/STM32F4xx_HAL_Driver/Src/stm32f4xx_hal_hcd.c ****   * @param  hhcd HCD handle
1017:Drivers/STM32F4xx_HAL_Driver/Src/stm32f4xx_hal_hcd.c ****   * @retval HAL status
1018:Drivers/STM32F4xx_HAL_Driver/Src/stm32f4xx_hal_hcd.c ****   */
1019:Drivers/STM32F4xx_HAL_Driver/Src/stm32f4xx_hal_hcd.c **** HAL_StatusTypeDef HAL_HCD_Start(HCD_HandleTypeDef *hhcd)
1020:Drivers/STM32F4xx_HAL_Driver/Src/stm32f4xx_hal_hcd.c **** {
1021:Drivers/STM32F4xx_HAL_Driver/Src/stm32f4xx_hal_hcd.c ****   __HAL_LOCK(hhcd);
1022:Drivers/STM32F4xx_HAL_Driver/Src/stm32f4xx_hal_hcd.c ****   __HAL_HCD_ENABLE(hhcd);
1023:Drivers/STM32F4xx_HAL_Driver/Src/stm32f4xx_hal_hcd.c ****   (void)USB_DriveVbus(hhcd->Instance, 1U);
1024:Drivers/STM32F4xx_HAL_Driver/Src/stm32f4xx_hal_hcd.c ****   __HAL_UNLOCK(hhcd);
1025:Drivers/STM32F4xx_HAL_Driver/Src/stm32f4xx_hal_hcd.c **** 
1026:Drivers/STM32F4xx_HAL_Driver/Src/stm32f4xx_hal_hcd.c ****   return HAL_OK;
1027:Drivers/STM32F4xx_HAL_Driver/Src/stm32f4xx_hal_hcd.c **** }
1028:Drivers/STM32F4xx_HAL_Driver/Src/stm32f4xx_hal_hcd.c **** 
1029:Drivers/STM32F4xx_HAL_Driver/Src/stm32f4xx_hal_hcd.c **** /**
1030:Drivers/STM32F4xx_HAL_Driver/Src/stm32f4xx_hal_hcd.c ****   * @brief  Stop the host driver.
1031:Drivers/STM32F4xx_HAL_Driver/Src/stm32f4xx_hal_hcd.c ****   * @param  hhcd HCD handle
1032:Drivers/STM32F4xx_HAL_Driver/Src/stm32f4xx_hal_hcd.c ****   * @retval HAL status
1033:Drivers/STM32F4xx_HAL_Driver/Src/stm32f4xx_hal_hcd.c ****   */
1034:Drivers/STM32F4xx_HAL_Driver/Src/stm32f4xx_hal_hcd.c **** 
1035:Drivers/STM32F4xx_HAL_Driver/Src/stm32f4xx_hal_hcd.c **** HAL_StatusTypeDef HAL_HCD_Stop(HCD_HandleTypeDef *hhcd)
1036:Drivers/STM32F4xx_HAL_Driver/Src/stm32f4xx_hal_hcd.c **** {
1037:Drivers/STM32F4xx_HAL_Driver/Src/stm32f4xx_hal_hcd.c ****   __HAL_LOCK(hhcd);
1038:Drivers/STM32F4xx_HAL_Driver/Src/stm32f4xx_hal_hcd.c ****   (void)USB_StopHost(hhcd->Instance);
1039:Drivers/STM32F4xx_HAL_Driver/Src/stm32f4xx_hal_hcd.c ****   __HAL_UNLOCK(hhcd);
1040:Drivers/STM32F4xx_HAL_Driver/Src/stm32f4xx_hal_hcd.c **** 
1041:Drivers/STM32F4xx_HAL_Driver/Src/stm32f4xx_hal_hcd.c ****   return HAL_OK;
1042:Drivers/STM32F4xx_HAL_Driver/Src/stm32f4xx_hal_hcd.c **** }
1043:Drivers/STM32F4xx_HAL_Driver/Src/stm32f4xx_hal_hcd.c **** 
1044:Drivers/STM32F4xx_HAL_Driver/Src/stm32f4xx_hal_hcd.c **** /**
1045:Drivers/STM32F4xx_HAL_Driver/Src/stm32f4xx_hal_hcd.c ****   * @brief  Reset the host port.
1046:Drivers/STM32F4xx_HAL_Driver/Src/stm32f4xx_hal_hcd.c ****   * @param  hhcd HCD handle
1047:Drivers/STM32F4xx_HAL_Driver/Src/stm32f4xx_hal_hcd.c ****   * @retval HAL status
1048:Drivers/STM32F4xx_HAL_Driver/Src/stm32f4xx_hal_hcd.c ****   */
1049:Drivers/STM32F4xx_HAL_Driver/Src/stm32f4xx_hal_hcd.c **** HAL_StatusTypeDef HAL_HCD_ResetPort(HCD_HandleTypeDef *hhcd)
1050:Drivers/STM32F4xx_HAL_Driver/Src/stm32f4xx_hal_hcd.c **** {
1051:Drivers/STM32F4xx_HAL_Driver/Src/stm32f4xx_hal_hcd.c ****   return (USB_ResetPort(hhcd->Instance));
1052:Drivers/STM32F4xx_HAL_Driver/Src/stm32f4xx_hal_hcd.c **** }
1053:Drivers/STM32F4xx_HAL_Driver/Src/stm32f4xx_hal_hcd.c **** 
1054:Drivers/STM32F4xx_HAL_Driver/Src/stm32f4xx_hal_hcd.c **** /**
1055:Drivers/STM32F4xx_HAL_Driver/Src/stm32f4xx_hal_hcd.c ****   * @}
1056:Drivers/STM32F4xx_HAL_Driver/Src/stm32f4xx_hal_hcd.c ****   */
ARM GAS  /tmp/ccJjbwbP.s 			page 20


1057:Drivers/STM32F4xx_HAL_Driver/Src/stm32f4xx_hal_hcd.c **** 
1058:Drivers/STM32F4xx_HAL_Driver/Src/stm32f4xx_hal_hcd.c **** /** @defgroup HCD_Exported_Functions_Group4 Peripheral State functions
1059:Drivers/STM32F4xx_HAL_Driver/Src/stm32f4xx_hal_hcd.c ****   *  @brief   Peripheral State functions
1060:Drivers/STM32F4xx_HAL_Driver/Src/stm32f4xx_hal_hcd.c ****   *
1061:Drivers/STM32F4xx_HAL_Driver/Src/stm32f4xx_hal_hcd.c **** @verbatim
1062:Drivers/STM32F4xx_HAL_Driver/Src/stm32f4xx_hal_hcd.c ****  ===============================================================================
1063:Drivers/STM32F4xx_HAL_Driver/Src/stm32f4xx_hal_hcd.c ****                       ##### Peripheral State functions #####
1064:Drivers/STM32F4xx_HAL_Driver/Src/stm32f4xx_hal_hcd.c ****  ===============================================================================
1065:Drivers/STM32F4xx_HAL_Driver/Src/stm32f4xx_hal_hcd.c ****     [..]
1066:Drivers/STM32F4xx_HAL_Driver/Src/stm32f4xx_hal_hcd.c ****     This subsection permits to get in run-time the status of the peripheral
1067:Drivers/STM32F4xx_HAL_Driver/Src/stm32f4xx_hal_hcd.c ****     and the data flow.
1068:Drivers/STM32F4xx_HAL_Driver/Src/stm32f4xx_hal_hcd.c **** 
1069:Drivers/STM32F4xx_HAL_Driver/Src/stm32f4xx_hal_hcd.c **** @endverbatim
1070:Drivers/STM32F4xx_HAL_Driver/Src/stm32f4xx_hal_hcd.c ****   * @{
1071:Drivers/STM32F4xx_HAL_Driver/Src/stm32f4xx_hal_hcd.c ****   */
1072:Drivers/STM32F4xx_HAL_Driver/Src/stm32f4xx_hal_hcd.c **** 
1073:Drivers/STM32F4xx_HAL_Driver/Src/stm32f4xx_hal_hcd.c **** /**
1074:Drivers/STM32F4xx_HAL_Driver/Src/stm32f4xx_hal_hcd.c ****   * @brief  Return the HCD handle state.
1075:Drivers/STM32F4xx_HAL_Driver/Src/stm32f4xx_hal_hcd.c ****   * @param  hhcd HCD handle
1076:Drivers/STM32F4xx_HAL_Driver/Src/stm32f4xx_hal_hcd.c ****   * @retval HAL state
1077:Drivers/STM32F4xx_HAL_Driver/Src/stm32f4xx_hal_hcd.c ****   */
1078:Drivers/STM32F4xx_HAL_Driver/Src/stm32f4xx_hal_hcd.c **** HCD_StateTypeDef HAL_HCD_GetState(HCD_HandleTypeDef *hhcd)
1079:Drivers/STM32F4xx_HAL_Driver/Src/stm32f4xx_hal_hcd.c **** {
1080:Drivers/STM32F4xx_HAL_Driver/Src/stm32f4xx_hal_hcd.c ****   return hhcd->State;
1081:Drivers/STM32F4xx_HAL_Driver/Src/stm32f4xx_hal_hcd.c **** }
1082:Drivers/STM32F4xx_HAL_Driver/Src/stm32f4xx_hal_hcd.c **** 
1083:Drivers/STM32F4xx_HAL_Driver/Src/stm32f4xx_hal_hcd.c **** /**
1084:Drivers/STM32F4xx_HAL_Driver/Src/stm32f4xx_hal_hcd.c ****   * @brief  Return  URB state for a channel.
1085:Drivers/STM32F4xx_HAL_Driver/Src/stm32f4xx_hal_hcd.c ****   * @param  hhcd HCD handle
1086:Drivers/STM32F4xx_HAL_Driver/Src/stm32f4xx_hal_hcd.c ****   * @param  chnum Channel number.
1087:Drivers/STM32F4xx_HAL_Driver/Src/stm32f4xx_hal_hcd.c ****   *         This parameter can be a value from 1 to 15
1088:Drivers/STM32F4xx_HAL_Driver/Src/stm32f4xx_hal_hcd.c ****   * @retval URB state.
1089:Drivers/STM32F4xx_HAL_Driver/Src/stm32f4xx_hal_hcd.c ****   *          This parameter can be one of these values:
1090:Drivers/STM32F4xx_HAL_Driver/Src/stm32f4xx_hal_hcd.c ****   *            URB_IDLE/
1091:Drivers/STM32F4xx_HAL_Driver/Src/stm32f4xx_hal_hcd.c ****   *            URB_DONE/
1092:Drivers/STM32F4xx_HAL_Driver/Src/stm32f4xx_hal_hcd.c ****   *            URB_NOTREADY/
1093:Drivers/STM32F4xx_HAL_Driver/Src/stm32f4xx_hal_hcd.c ****   *            URB_NYET/
1094:Drivers/STM32F4xx_HAL_Driver/Src/stm32f4xx_hal_hcd.c ****   *            URB_ERROR/
1095:Drivers/STM32F4xx_HAL_Driver/Src/stm32f4xx_hal_hcd.c ****   *            URB_STALL
1096:Drivers/STM32F4xx_HAL_Driver/Src/stm32f4xx_hal_hcd.c ****   */
1097:Drivers/STM32F4xx_HAL_Driver/Src/stm32f4xx_hal_hcd.c **** HCD_URBStateTypeDef HAL_HCD_HC_GetURBState(HCD_HandleTypeDef *hhcd, uint8_t chnum)
1098:Drivers/STM32F4xx_HAL_Driver/Src/stm32f4xx_hal_hcd.c **** {
1099:Drivers/STM32F4xx_HAL_Driver/Src/stm32f4xx_hal_hcd.c ****   return hhcd->hc[chnum].urb_state;
1100:Drivers/STM32F4xx_HAL_Driver/Src/stm32f4xx_hal_hcd.c **** }
1101:Drivers/STM32F4xx_HAL_Driver/Src/stm32f4xx_hal_hcd.c **** 
1102:Drivers/STM32F4xx_HAL_Driver/Src/stm32f4xx_hal_hcd.c **** 
1103:Drivers/STM32F4xx_HAL_Driver/Src/stm32f4xx_hal_hcd.c **** /**
1104:Drivers/STM32F4xx_HAL_Driver/Src/stm32f4xx_hal_hcd.c ****   * @brief  Return the last host transfer size.
1105:Drivers/STM32F4xx_HAL_Driver/Src/stm32f4xx_hal_hcd.c ****   * @param  hhcd HCD handle
1106:Drivers/STM32F4xx_HAL_Driver/Src/stm32f4xx_hal_hcd.c ****   * @param  chnum Channel number.
1107:Drivers/STM32F4xx_HAL_Driver/Src/stm32f4xx_hal_hcd.c ****   *         This parameter can be a value from 1 to 15
1108:Drivers/STM32F4xx_HAL_Driver/Src/stm32f4xx_hal_hcd.c ****   * @retval last transfer size in byte
1109:Drivers/STM32F4xx_HAL_Driver/Src/stm32f4xx_hal_hcd.c ****   */
1110:Drivers/STM32F4xx_HAL_Driver/Src/stm32f4xx_hal_hcd.c **** uint32_t HAL_HCD_HC_GetXferCount(HCD_HandleTypeDef *hhcd, uint8_t chnum)
1111:Drivers/STM32F4xx_HAL_Driver/Src/stm32f4xx_hal_hcd.c **** {
1112:Drivers/STM32F4xx_HAL_Driver/Src/stm32f4xx_hal_hcd.c ****   return hhcd->hc[chnum].xfer_count;
1113:Drivers/STM32F4xx_HAL_Driver/Src/stm32f4xx_hal_hcd.c **** }
ARM GAS  /tmp/ccJjbwbP.s 			page 21


1114:Drivers/STM32F4xx_HAL_Driver/Src/stm32f4xx_hal_hcd.c **** 
1115:Drivers/STM32F4xx_HAL_Driver/Src/stm32f4xx_hal_hcd.c **** /**
1116:Drivers/STM32F4xx_HAL_Driver/Src/stm32f4xx_hal_hcd.c ****   * @brief  Return the Host Channel state.
1117:Drivers/STM32F4xx_HAL_Driver/Src/stm32f4xx_hal_hcd.c ****   * @param  hhcd HCD handle
1118:Drivers/STM32F4xx_HAL_Driver/Src/stm32f4xx_hal_hcd.c ****   * @param  chnum Channel number.
1119:Drivers/STM32F4xx_HAL_Driver/Src/stm32f4xx_hal_hcd.c ****   *         This parameter can be a value from 1 to 15
1120:Drivers/STM32F4xx_HAL_Driver/Src/stm32f4xx_hal_hcd.c ****   * @retval Host channel state
1121:Drivers/STM32F4xx_HAL_Driver/Src/stm32f4xx_hal_hcd.c ****   *          This parameter can be one of these values:
1122:Drivers/STM32F4xx_HAL_Driver/Src/stm32f4xx_hal_hcd.c ****   *            HC_IDLE/
1123:Drivers/STM32F4xx_HAL_Driver/Src/stm32f4xx_hal_hcd.c ****   *            HC_XFRC/
1124:Drivers/STM32F4xx_HAL_Driver/Src/stm32f4xx_hal_hcd.c ****   *            HC_HALTED/
1125:Drivers/STM32F4xx_HAL_Driver/Src/stm32f4xx_hal_hcd.c ****   *            HC_NYET/
1126:Drivers/STM32F4xx_HAL_Driver/Src/stm32f4xx_hal_hcd.c ****   *            HC_NAK/
1127:Drivers/STM32F4xx_HAL_Driver/Src/stm32f4xx_hal_hcd.c ****   *            HC_STALL/
1128:Drivers/STM32F4xx_HAL_Driver/Src/stm32f4xx_hal_hcd.c ****   *            HC_XACTERR/
1129:Drivers/STM32F4xx_HAL_Driver/Src/stm32f4xx_hal_hcd.c ****   *            HC_BBLERR/
1130:Drivers/STM32F4xx_HAL_Driver/Src/stm32f4xx_hal_hcd.c ****   *            HC_DATATGLERR
1131:Drivers/STM32F4xx_HAL_Driver/Src/stm32f4xx_hal_hcd.c ****   */
1132:Drivers/STM32F4xx_HAL_Driver/Src/stm32f4xx_hal_hcd.c **** HCD_HCStateTypeDef  HAL_HCD_HC_GetState(HCD_HandleTypeDef *hhcd, uint8_t chnum)
1133:Drivers/STM32F4xx_HAL_Driver/Src/stm32f4xx_hal_hcd.c **** {
1134:Drivers/STM32F4xx_HAL_Driver/Src/stm32f4xx_hal_hcd.c ****   return hhcd->hc[chnum].state;
1135:Drivers/STM32F4xx_HAL_Driver/Src/stm32f4xx_hal_hcd.c **** }
1136:Drivers/STM32F4xx_HAL_Driver/Src/stm32f4xx_hal_hcd.c **** 
1137:Drivers/STM32F4xx_HAL_Driver/Src/stm32f4xx_hal_hcd.c **** /**
1138:Drivers/STM32F4xx_HAL_Driver/Src/stm32f4xx_hal_hcd.c ****   * @brief  Return the current Host frame number.
1139:Drivers/STM32F4xx_HAL_Driver/Src/stm32f4xx_hal_hcd.c ****   * @param  hhcd HCD handle
1140:Drivers/STM32F4xx_HAL_Driver/Src/stm32f4xx_hal_hcd.c ****   * @retval Current Host frame number
1141:Drivers/STM32F4xx_HAL_Driver/Src/stm32f4xx_hal_hcd.c ****   */
1142:Drivers/STM32F4xx_HAL_Driver/Src/stm32f4xx_hal_hcd.c **** uint32_t HAL_HCD_GetCurrentFrame(HCD_HandleTypeDef *hhcd)
1143:Drivers/STM32F4xx_HAL_Driver/Src/stm32f4xx_hal_hcd.c **** {
1144:Drivers/STM32F4xx_HAL_Driver/Src/stm32f4xx_hal_hcd.c ****   return (USB_GetCurrentFrame(hhcd->Instance));
1145:Drivers/STM32F4xx_HAL_Driver/Src/stm32f4xx_hal_hcd.c **** }
1146:Drivers/STM32F4xx_HAL_Driver/Src/stm32f4xx_hal_hcd.c **** 
1147:Drivers/STM32F4xx_HAL_Driver/Src/stm32f4xx_hal_hcd.c **** /**
1148:Drivers/STM32F4xx_HAL_Driver/Src/stm32f4xx_hal_hcd.c ****   * @brief  Return the Host enumeration speed.
1149:Drivers/STM32F4xx_HAL_Driver/Src/stm32f4xx_hal_hcd.c ****   * @param  hhcd HCD handle
1150:Drivers/STM32F4xx_HAL_Driver/Src/stm32f4xx_hal_hcd.c ****   * @retval Enumeration speed
1151:Drivers/STM32F4xx_HAL_Driver/Src/stm32f4xx_hal_hcd.c ****   */
1152:Drivers/STM32F4xx_HAL_Driver/Src/stm32f4xx_hal_hcd.c **** uint32_t HAL_HCD_GetCurrentSpeed(HCD_HandleTypeDef *hhcd)
1153:Drivers/STM32F4xx_HAL_Driver/Src/stm32f4xx_hal_hcd.c **** {
1154:Drivers/STM32F4xx_HAL_Driver/Src/stm32f4xx_hal_hcd.c ****   return (USB_GetHostSpeed(hhcd->Instance));
1155:Drivers/STM32F4xx_HAL_Driver/Src/stm32f4xx_hal_hcd.c **** }
1156:Drivers/STM32F4xx_HAL_Driver/Src/stm32f4xx_hal_hcd.c **** 
1157:Drivers/STM32F4xx_HAL_Driver/Src/stm32f4xx_hal_hcd.c **** /**
1158:Drivers/STM32F4xx_HAL_Driver/Src/stm32f4xx_hal_hcd.c ****   * @}
1159:Drivers/STM32F4xx_HAL_Driver/Src/stm32f4xx_hal_hcd.c ****   */
1160:Drivers/STM32F4xx_HAL_Driver/Src/stm32f4xx_hal_hcd.c **** 
1161:Drivers/STM32F4xx_HAL_Driver/Src/stm32f4xx_hal_hcd.c **** /**
1162:Drivers/STM32F4xx_HAL_Driver/Src/stm32f4xx_hal_hcd.c ****   * @}
1163:Drivers/STM32F4xx_HAL_Driver/Src/stm32f4xx_hal_hcd.c ****   */
1164:Drivers/STM32F4xx_HAL_Driver/Src/stm32f4xx_hal_hcd.c **** 
1165:Drivers/STM32F4xx_HAL_Driver/Src/stm32f4xx_hal_hcd.c **** /** @addtogroup HCD_Private_Functions
1166:Drivers/STM32F4xx_HAL_Driver/Src/stm32f4xx_hal_hcd.c ****   * @{
1167:Drivers/STM32F4xx_HAL_Driver/Src/stm32f4xx_hal_hcd.c ****   */
1168:Drivers/STM32F4xx_HAL_Driver/Src/stm32f4xx_hal_hcd.c **** /**
1169:Drivers/STM32F4xx_HAL_Driver/Src/stm32f4xx_hal_hcd.c ****   * @brief  Handle Host Channel IN interrupt requests.
1170:Drivers/STM32F4xx_HAL_Driver/Src/stm32f4xx_hal_hcd.c ****   * @param  hhcd HCD handle
ARM GAS  /tmp/ccJjbwbP.s 			page 22


1171:Drivers/STM32F4xx_HAL_Driver/Src/stm32f4xx_hal_hcd.c ****   * @param  chnum Channel number.
1172:Drivers/STM32F4xx_HAL_Driver/Src/stm32f4xx_hal_hcd.c ****   *         This parameter can be a value from 1 to 15
1173:Drivers/STM32F4xx_HAL_Driver/Src/stm32f4xx_hal_hcd.c ****   * @retval none
1174:Drivers/STM32F4xx_HAL_Driver/Src/stm32f4xx_hal_hcd.c ****   */
1175:Drivers/STM32F4xx_HAL_Driver/Src/stm32f4xx_hal_hcd.c **** static void HCD_HC_IN_IRQHandler(HCD_HandleTypeDef *hhcd, uint8_t chnum)
1176:Drivers/STM32F4xx_HAL_Driver/Src/stm32f4xx_hal_hcd.c **** {
1177:Drivers/STM32F4xx_HAL_Driver/Src/stm32f4xx_hal_hcd.c ****   USB_OTG_GlobalTypeDef *USBx = hhcd->Instance;
1178:Drivers/STM32F4xx_HAL_Driver/Src/stm32f4xx_hal_hcd.c ****   uint32_t USBx_BASE = (uint32_t)USBx;
1179:Drivers/STM32F4xx_HAL_Driver/Src/stm32f4xx_hal_hcd.c ****   uint32_t ch_num = (uint32_t)chnum;
1180:Drivers/STM32F4xx_HAL_Driver/Src/stm32f4xx_hal_hcd.c **** 
1181:Drivers/STM32F4xx_HAL_Driver/Src/stm32f4xx_hal_hcd.c ****   uint32_t tmpreg;
1182:Drivers/STM32F4xx_HAL_Driver/Src/stm32f4xx_hal_hcd.c **** 
1183:Drivers/STM32F4xx_HAL_Driver/Src/stm32f4xx_hal_hcd.c ****   if ((USBx_HC(ch_num)->HCINT & USB_OTG_HCINT_AHBERR) == USB_OTG_HCINT_AHBERR)
1184:Drivers/STM32F4xx_HAL_Driver/Src/stm32f4xx_hal_hcd.c ****   {
1185:Drivers/STM32F4xx_HAL_Driver/Src/stm32f4xx_hal_hcd.c ****     __HAL_HCD_CLEAR_HC_INT(ch_num, USB_OTG_HCINT_AHBERR);
1186:Drivers/STM32F4xx_HAL_Driver/Src/stm32f4xx_hal_hcd.c ****     __HAL_HCD_UNMASK_HALT_HC_INT(ch_num);
1187:Drivers/STM32F4xx_HAL_Driver/Src/stm32f4xx_hal_hcd.c ****   }
1188:Drivers/STM32F4xx_HAL_Driver/Src/stm32f4xx_hal_hcd.c ****   else if ((USBx_HC(ch_num)->HCINT & USB_OTG_HCINT_BBERR) == USB_OTG_HCINT_BBERR)
1189:Drivers/STM32F4xx_HAL_Driver/Src/stm32f4xx_hal_hcd.c ****   {
1190:Drivers/STM32F4xx_HAL_Driver/Src/stm32f4xx_hal_hcd.c ****     __HAL_HCD_CLEAR_HC_INT(ch_num, USB_OTG_HCINT_BBERR);
1191:Drivers/STM32F4xx_HAL_Driver/Src/stm32f4xx_hal_hcd.c ****     hhcd->hc[ch_num].state = HC_BBLERR;
1192:Drivers/STM32F4xx_HAL_Driver/Src/stm32f4xx_hal_hcd.c ****     __HAL_HCD_UNMASK_HALT_HC_INT(ch_num);
1193:Drivers/STM32F4xx_HAL_Driver/Src/stm32f4xx_hal_hcd.c ****     (void)USB_HC_Halt(hhcd->Instance, (uint8_t)ch_num);
1194:Drivers/STM32F4xx_HAL_Driver/Src/stm32f4xx_hal_hcd.c ****   }
1195:Drivers/STM32F4xx_HAL_Driver/Src/stm32f4xx_hal_hcd.c ****   else if ((USBx_HC(ch_num)->HCINT & USB_OTG_HCINT_ACK) == USB_OTG_HCINT_ACK)
1196:Drivers/STM32F4xx_HAL_Driver/Src/stm32f4xx_hal_hcd.c ****   {
1197:Drivers/STM32F4xx_HAL_Driver/Src/stm32f4xx_hal_hcd.c ****     __HAL_HCD_CLEAR_HC_INT(ch_num, USB_OTG_HCINT_ACK);
1198:Drivers/STM32F4xx_HAL_Driver/Src/stm32f4xx_hal_hcd.c ****   }
1199:Drivers/STM32F4xx_HAL_Driver/Src/stm32f4xx_hal_hcd.c ****   else if ((USBx_HC(ch_num)->HCINT & USB_OTG_HCINT_STALL) == USB_OTG_HCINT_STALL)
1200:Drivers/STM32F4xx_HAL_Driver/Src/stm32f4xx_hal_hcd.c ****   {
1201:Drivers/STM32F4xx_HAL_Driver/Src/stm32f4xx_hal_hcd.c ****     __HAL_HCD_UNMASK_HALT_HC_INT(ch_num);
1202:Drivers/STM32F4xx_HAL_Driver/Src/stm32f4xx_hal_hcd.c ****     hhcd->hc[ch_num].state = HC_STALL;
1203:Drivers/STM32F4xx_HAL_Driver/Src/stm32f4xx_hal_hcd.c ****     __HAL_HCD_CLEAR_HC_INT(ch_num, USB_OTG_HCINT_NAK);
1204:Drivers/STM32F4xx_HAL_Driver/Src/stm32f4xx_hal_hcd.c ****     __HAL_HCD_CLEAR_HC_INT(ch_num, USB_OTG_HCINT_STALL);
1205:Drivers/STM32F4xx_HAL_Driver/Src/stm32f4xx_hal_hcd.c ****     (void)USB_HC_Halt(hhcd->Instance, (uint8_t)ch_num);
1206:Drivers/STM32F4xx_HAL_Driver/Src/stm32f4xx_hal_hcd.c ****   }
1207:Drivers/STM32F4xx_HAL_Driver/Src/stm32f4xx_hal_hcd.c ****   else if ((USBx_HC(ch_num)->HCINT & USB_OTG_HCINT_DTERR) == USB_OTG_HCINT_DTERR)
1208:Drivers/STM32F4xx_HAL_Driver/Src/stm32f4xx_hal_hcd.c ****   {
1209:Drivers/STM32F4xx_HAL_Driver/Src/stm32f4xx_hal_hcd.c ****     __HAL_HCD_UNMASK_HALT_HC_INT(ch_num);
1210:Drivers/STM32F4xx_HAL_Driver/Src/stm32f4xx_hal_hcd.c ****     (void)USB_HC_Halt(hhcd->Instance, (uint8_t)ch_num);
1211:Drivers/STM32F4xx_HAL_Driver/Src/stm32f4xx_hal_hcd.c ****     __HAL_HCD_CLEAR_HC_INT(ch_num, USB_OTG_HCINT_NAK);
1212:Drivers/STM32F4xx_HAL_Driver/Src/stm32f4xx_hal_hcd.c ****     hhcd->hc[ch_num].state = HC_DATATGLERR;
1213:Drivers/STM32F4xx_HAL_Driver/Src/stm32f4xx_hal_hcd.c ****     __HAL_HCD_CLEAR_HC_INT(ch_num, USB_OTG_HCINT_DTERR);
1214:Drivers/STM32F4xx_HAL_Driver/Src/stm32f4xx_hal_hcd.c ****   }
1215:Drivers/STM32F4xx_HAL_Driver/Src/stm32f4xx_hal_hcd.c ****   else
1216:Drivers/STM32F4xx_HAL_Driver/Src/stm32f4xx_hal_hcd.c ****   {
1217:Drivers/STM32F4xx_HAL_Driver/Src/stm32f4xx_hal_hcd.c ****     /* ... */
1218:Drivers/STM32F4xx_HAL_Driver/Src/stm32f4xx_hal_hcd.c ****   }
1219:Drivers/STM32F4xx_HAL_Driver/Src/stm32f4xx_hal_hcd.c **** 
1220:Drivers/STM32F4xx_HAL_Driver/Src/stm32f4xx_hal_hcd.c ****   if ((USBx_HC(ch_num)->HCINT & USB_OTG_HCINT_FRMOR) == USB_OTG_HCINT_FRMOR)
1221:Drivers/STM32F4xx_HAL_Driver/Src/stm32f4xx_hal_hcd.c ****   {
1222:Drivers/STM32F4xx_HAL_Driver/Src/stm32f4xx_hal_hcd.c ****     __HAL_HCD_UNMASK_HALT_HC_INT(ch_num);
1223:Drivers/STM32F4xx_HAL_Driver/Src/stm32f4xx_hal_hcd.c ****     (void)USB_HC_Halt(hhcd->Instance, (uint8_t)ch_num);
1224:Drivers/STM32F4xx_HAL_Driver/Src/stm32f4xx_hal_hcd.c ****     __HAL_HCD_CLEAR_HC_INT(ch_num, USB_OTG_HCINT_FRMOR);
1225:Drivers/STM32F4xx_HAL_Driver/Src/stm32f4xx_hal_hcd.c ****   }
1226:Drivers/STM32F4xx_HAL_Driver/Src/stm32f4xx_hal_hcd.c ****   else if ((USBx_HC(ch_num)->HCINT & USB_OTG_HCINT_XFRC) == USB_OTG_HCINT_XFRC)
1227:Drivers/STM32F4xx_HAL_Driver/Src/stm32f4xx_hal_hcd.c ****   {
ARM GAS  /tmp/ccJjbwbP.s 			page 23


1228:Drivers/STM32F4xx_HAL_Driver/Src/stm32f4xx_hal_hcd.c ****     if (hhcd->Init.dma_enable != 0U)
1229:Drivers/STM32F4xx_HAL_Driver/Src/stm32f4xx_hal_hcd.c ****     {
1230:Drivers/STM32F4xx_HAL_Driver/Src/stm32f4xx_hal_hcd.c ****       hhcd->hc[ch_num].xfer_count = hhcd->hc[ch_num].xfer_len - \
1231:Drivers/STM32F4xx_HAL_Driver/Src/stm32f4xx_hal_hcd.c ****                                     (USBx_HC(ch_num)->HCTSIZ & USB_OTG_HCTSIZ_XFRSIZ);
1232:Drivers/STM32F4xx_HAL_Driver/Src/stm32f4xx_hal_hcd.c ****     }
1233:Drivers/STM32F4xx_HAL_Driver/Src/stm32f4xx_hal_hcd.c **** 
1234:Drivers/STM32F4xx_HAL_Driver/Src/stm32f4xx_hal_hcd.c ****     hhcd->hc[ch_num].state = HC_XFRC;
1235:Drivers/STM32F4xx_HAL_Driver/Src/stm32f4xx_hal_hcd.c ****     hhcd->hc[ch_num].ErrCnt = 0U;
1236:Drivers/STM32F4xx_HAL_Driver/Src/stm32f4xx_hal_hcd.c ****     __HAL_HCD_CLEAR_HC_INT(ch_num, USB_OTG_HCINT_XFRC);
1237:Drivers/STM32F4xx_HAL_Driver/Src/stm32f4xx_hal_hcd.c **** 
1238:Drivers/STM32F4xx_HAL_Driver/Src/stm32f4xx_hal_hcd.c ****     if ((hhcd->hc[ch_num].ep_type == EP_TYPE_CTRL) ||
1239:Drivers/STM32F4xx_HAL_Driver/Src/stm32f4xx_hal_hcd.c ****         (hhcd->hc[ch_num].ep_type == EP_TYPE_BULK))
1240:Drivers/STM32F4xx_HAL_Driver/Src/stm32f4xx_hal_hcd.c ****     {
1241:Drivers/STM32F4xx_HAL_Driver/Src/stm32f4xx_hal_hcd.c ****       __HAL_HCD_UNMASK_HALT_HC_INT(ch_num);
1242:Drivers/STM32F4xx_HAL_Driver/Src/stm32f4xx_hal_hcd.c ****       (void)USB_HC_Halt(hhcd->Instance, (uint8_t)ch_num);
1243:Drivers/STM32F4xx_HAL_Driver/Src/stm32f4xx_hal_hcd.c ****       __HAL_HCD_CLEAR_HC_INT(ch_num, USB_OTG_HCINT_NAK);
1244:Drivers/STM32F4xx_HAL_Driver/Src/stm32f4xx_hal_hcd.c ****     }
1245:Drivers/STM32F4xx_HAL_Driver/Src/stm32f4xx_hal_hcd.c ****     else if (hhcd->hc[ch_num].ep_type == EP_TYPE_INTR)
1246:Drivers/STM32F4xx_HAL_Driver/Src/stm32f4xx_hal_hcd.c ****     {
1247:Drivers/STM32F4xx_HAL_Driver/Src/stm32f4xx_hal_hcd.c ****       USBx_HC(ch_num)->HCCHAR |= USB_OTG_HCCHAR_ODDFRM;
1248:Drivers/STM32F4xx_HAL_Driver/Src/stm32f4xx_hal_hcd.c ****       hhcd->hc[ch_num].urb_state = URB_DONE;
1249:Drivers/STM32F4xx_HAL_Driver/Src/stm32f4xx_hal_hcd.c **** 
1250:Drivers/STM32F4xx_HAL_Driver/Src/stm32f4xx_hal_hcd.c **** #if (USE_HAL_HCD_REGISTER_CALLBACKS == 1U)
1251:Drivers/STM32F4xx_HAL_Driver/Src/stm32f4xx_hal_hcd.c ****       hhcd->HC_NotifyURBChangeCallback(hhcd, (uint8_t)ch_num, hhcd->hc[ch_num].urb_state);
1252:Drivers/STM32F4xx_HAL_Driver/Src/stm32f4xx_hal_hcd.c **** #else
1253:Drivers/STM32F4xx_HAL_Driver/Src/stm32f4xx_hal_hcd.c ****       HAL_HCD_HC_NotifyURBChange_Callback(hhcd, (uint8_t)ch_num, hhcd->hc[ch_num].urb_state);
1254:Drivers/STM32F4xx_HAL_Driver/Src/stm32f4xx_hal_hcd.c **** #endif /* USE_HAL_HCD_REGISTER_CALLBACKS */
1255:Drivers/STM32F4xx_HAL_Driver/Src/stm32f4xx_hal_hcd.c ****     }
1256:Drivers/STM32F4xx_HAL_Driver/Src/stm32f4xx_hal_hcd.c ****     else if (hhcd->hc[ch_num].ep_type == EP_TYPE_ISOC)
1257:Drivers/STM32F4xx_HAL_Driver/Src/stm32f4xx_hal_hcd.c ****     {
1258:Drivers/STM32F4xx_HAL_Driver/Src/stm32f4xx_hal_hcd.c ****       hhcd->hc[ch_num].urb_state = URB_DONE;
1259:Drivers/STM32F4xx_HAL_Driver/Src/stm32f4xx_hal_hcd.c ****       hhcd->hc[ch_num].toggle_in ^= 1U;
1260:Drivers/STM32F4xx_HAL_Driver/Src/stm32f4xx_hal_hcd.c **** 
1261:Drivers/STM32F4xx_HAL_Driver/Src/stm32f4xx_hal_hcd.c **** #if (USE_HAL_HCD_REGISTER_CALLBACKS == 1U)
1262:Drivers/STM32F4xx_HAL_Driver/Src/stm32f4xx_hal_hcd.c ****       hhcd->HC_NotifyURBChangeCallback(hhcd, (uint8_t)ch_num, hhcd->hc[ch_num].urb_state);
1263:Drivers/STM32F4xx_HAL_Driver/Src/stm32f4xx_hal_hcd.c **** #else
1264:Drivers/STM32F4xx_HAL_Driver/Src/stm32f4xx_hal_hcd.c ****       HAL_HCD_HC_NotifyURBChange_Callback(hhcd, (uint8_t)ch_num, hhcd->hc[ch_num].urb_state);
1265:Drivers/STM32F4xx_HAL_Driver/Src/stm32f4xx_hal_hcd.c **** #endif /* USE_HAL_HCD_REGISTER_CALLBACKS */
1266:Drivers/STM32F4xx_HAL_Driver/Src/stm32f4xx_hal_hcd.c ****     }
1267:Drivers/STM32F4xx_HAL_Driver/Src/stm32f4xx_hal_hcd.c ****     else
1268:Drivers/STM32F4xx_HAL_Driver/Src/stm32f4xx_hal_hcd.c ****     {
1269:Drivers/STM32F4xx_HAL_Driver/Src/stm32f4xx_hal_hcd.c ****       /* ... */
1270:Drivers/STM32F4xx_HAL_Driver/Src/stm32f4xx_hal_hcd.c ****     }
1271:Drivers/STM32F4xx_HAL_Driver/Src/stm32f4xx_hal_hcd.c ****     hhcd->hc[ch_num].toggle_in ^= 1U;
1272:Drivers/STM32F4xx_HAL_Driver/Src/stm32f4xx_hal_hcd.c **** 
1273:Drivers/STM32F4xx_HAL_Driver/Src/stm32f4xx_hal_hcd.c ****   }
1274:Drivers/STM32F4xx_HAL_Driver/Src/stm32f4xx_hal_hcd.c ****   else if ((USBx_HC(ch_num)->HCINT & USB_OTG_HCINT_CHH) == USB_OTG_HCINT_CHH)
1275:Drivers/STM32F4xx_HAL_Driver/Src/stm32f4xx_hal_hcd.c ****   {
1276:Drivers/STM32F4xx_HAL_Driver/Src/stm32f4xx_hal_hcd.c ****     __HAL_HCD_MASK_HALT_HC_INT(ch_num);
1277:Drivers/STM32F4xx_HAL_Driver/Src/stm32f4xx_hal_hcd.c **** 
1278:Drivers/STM32F4xx_HAL_Driver/Src/stm32f4xx_hal_hcd.c ****     if (hhcd->hc[ch_num].state == HC_XFRC)
1279:Drivers/STM32F4xx_HAL_Driver/Src/stm32f4xx_hal_hcd.c ****     {
1280:Drivers/STM32F4xx_HAL_Driver/Src/stm32f4xx_hal_hcd.c ****       hhcd->hc[ch_num].urb_state  = URB_DONE;
1281:Drivers/STM32F4xx_HAL_Driver/Src/stm32f4xx_hal_hcd.c ****     }
1282:Drivers/STM32F4xx_HAL_Driver/Src/stm32f4xx_hal_hcd.c ****     else if (hhcd->hc[ch_num].state == HC_STALL)
1283:Drivers/STM32F4xx_HAL_Driver/Src/stm32f4xx_hal_hcd.c ****     {
1284:Drivers/STM32F4xx_HAL_Driver/Src/stm32f4xx_hal_hcd.c ****       hhcd->hc[ch_num].urb_state  = URB_STALL;
ARM GAS  /tmp/ccJjbwbP.s 			page 24


1285:Drivers/STM32F4xx_HAL_Driver/Src/stm32f4xx_hal_hcd.c ****     }
1286:Drivers/STM32F4xx_HAL_Driver/Src/stm32f4xx_hal_hcd.c ****     else if ((hhcd->hc[ch_num].state == HC_XACTERR) ||
1287:Drivers/STM32F4xx_HAL_Driver/Src/stm32f4xx_hal_hcd.c ****              (hhcd->hc[ch_num].state == HC_DATATGLERR))
1288:Drivers/STM32F4xx_HAL_Driver/Src/stm32f4xx_hal_hcd.c ****     {
1289:Drivers/STM32F4xx_HAL_Driver/Src/stm32f4xx_hal_hcd.c ****       hhcd->hc[ch_num].ErrCnt++;
1290:Drivers/STM32F4xx_HAL_Driver/Src/stm32f4xx_hal_hcd.c ****       if (hhcd->hc[ch_num].ErrCnt > 3U)
1291:Drivers/STM32F4xx_HAL_Driver/Src/stm32f4xx_hal_hcd.c ****       {
1292:Drivers/STM32F4xx_HAL_Driver/Src/stm32f4xx_hal_hcd.c ****         hhcd->hc[ch_num].ErrCnt = 0U;
1293:Drivers/STM32F4xx_HAL_Driver/Src/stm32f4xx_hal_hcd.c ****         hhcd->hc[ch_num].urb_state = URB_ERROR;
1294:Drivers/STM32F4xx_HAL_Driver/Src/stm32f4xx_hal_hcd.c ****       }
1295:Drivers/STM32F4xx_HAL_Driver/Src/stm32f4xx_hal_hcd.c ****       else
1296:Drivers/STM32F4xx_HAL_Driver/Src/stm32f4xx_hal_hcd.c ****       {
1297:Drivers/STM32F4xx_HAL_Driver/Src/stm32f4xx_hal_hcd.c ****         hhcd->hc[ch_num].urb_state = URB_NOTREADY;
1298:Drivers/STM32F4xx_HAL_Driver/Src/stm32f4xx_hal_hcd.c ****       }
1299:Drivers/STM32F4xx_HAL_Driver/Src/stm32f4xx_hal_hcd.c **** 
1300:Drivers/STM32F4xx_HAL_Driver/Src/stm32f4xx_hal_hcd.c ****       /* re-activate the channel  */
1301:Drivers/STM32F4xx_HAL_Driver/Src/stm32f4xx_hal_hcd.c ****       tmpreg = USBx_HC(ch_num)->HCCHAR;
1302:Drivers/STM32F4xx_HAL_Driver/Src/stm32f4xx_hal_hcd.c ****       tmpreg &= ~USB_OTG_HCCHAR_CHDIS;
1303:Drivers/STM32F4xx_HAL_Driver/Src/stm32f4xx_hal_hcd.c ****       tmpreg |= USB_OTG_HCCHAR_CHENA;
1304:Drivers/STM32F4xx_HAL_Driver/Src/stm32f4xx_hal_hcd.c ****       USBx_HC(ch_num)->HCCHAR = tmpreg;
1305:Drivers/STM32F4xx_HAL_Driver/Src/stm32f4xx_hal_hcd.c ****     }
1306:Drivers/STM32F4xx_HAL_Driver/Src/stm32f4xx_hal_hcd.c ****     else if (hhcd->hc[ch_num].state == HC_NAK)
1307:Drivers/STM32F4xx_HAL_Driver/Src/stm32f4xx_hal_hcd.c ****     {
1308:Drivers/STM32F4xx_HAL_Driver/Src/stm32f4xx_hal_hcd.c ****       hhcd->hc[ch_num].urb_state  = URB_NOTREADY;
1309:Drivers/STM32F4xx_HAL_Driver/Src/stm32f4xx_hal_hcd.c ****       /* re-activate the channel  */
1310:Drivers/STM32F4xx_HAL_Driver/Src/stm32f4xx_hal_hcd.c ****       tmpreg = USBx_HC(ch_num)->HCCHAR;
1311:Drivers/STM32F4xx_HAL_Driver/Src/stm32f4xx_hal_hcd.c ****       tmpreg &= ~USB_OTG_HCCHAR_CHDIS;
1312:Drivers/STM32F4xx_HAL_Driver/Src/stm32f4xx_hal_hcd.c ****       tmpreg |= USB_OTG_HCCHAR_CHENA;
1313:Drivers/STM32F4xx_HAL_Driver/Src/stm32f4xx_hal_hcd.c ****       USBx_HC(ch_num)->HCCHAR = tmpreg;
1314:Drivers/STM32F4xx_HAL_Driver/Src/stm32f4xx_hal_hcd.c ****     }
1315:Drivers/STM32F4xx_HAL_Driver/Src/stm32f4xx_hal_hcd.c ****     else if (hhcd->hc[ch_num].state == HC_BBLERR)
1316:Drivers/STM32F4xx_HAL_Driver/Src/stm32f4xx_hal_hcd.c ****     {
1317:Drivers/STM32F4xx_HAL_Driver/Src/stm32f4xx_hal_hcd.c ****       hhcd->hc[ch_num].ErrCnt++;
1318:Drivers/STM32F4xx_HAL_Driver/Src/stm32f4xx_hal_hcd.c ****       hhcd->hc[ch_num].urb_state = URB_ERROR;
1319:Drivers/STM32F4xx_HAL_Driver/Src/stm32f4xx_hal_hcd.c ****     }
1320:Drivers/STM32F4xx_HAL_Driver/Src/stm32f4xx_hal_hcd.c ****     else
1321:Drivers/STM32F4xx_HAL_Driver/Src/stm32f4xx_hal_hcd.c ****     {
1322:Drivers/STM32F4xx_HAL_Driver/Src/stm32f4xx_hal_hcd.c ****       /* ... */
1323:Drivers/STM32F4xx_HAL_Driver/Src/stm32f4xx_hal_hcd.c ****     }
1324:Drivers/STM32F4xx_HAL_Driver/Src/stm32f4xx_hal_hcd.c ****     __HAL_HCD_CLEAR_HC_INT(ch_num, USB_OTG_HCINT_CHH);
1325:Drivers/STM32F4xx_HAL_Driver/Src/stm32f4xx_hal_hcd.c ****     HAL_HCD_HC_NotifyURBChange_Callback(hhcd, (uint8_t)ch_num, hhcd->hc[ch_num].urb_state);
1326:Drivers/STM32F4xx_HAL_Driver/Src/stm32f4xx_hal_hcd.c ****   }
1327:Drivers/STM32F4xx_HAL_Driver/Src/stm32f4xx_hal_hcd.c ****   else if ((USBx_HC(ch_num)->HCINT & USB_OTG_HCINT_TXERR) == USB_OTG_HCINT_TXERR)
1328:Drivers/STM32F4xx_HAL_Driver/Src/stm32f4xx_hal_hcd.c ****   {
1329:Drivers/STM32F4xx_HAL_Driver/Src/stm32f4xx_hal_hcd.c ****     __HAL_HCD_UNMASK_HALT_HC_INT(ch_num);
1330:Drivers/STM32F4xx_HAL_Driver/Src/stm32f4xx_hal_hcd.c ****     hhcd->hc[ch_num].ErrCnt++;
1331:Drivers/STM32F4xx_HAL_Driver/Src/stm32f4xx_hal_hcd.c ****     hhcd->hc[ch_num].state = HC_XACTERR;
1332:Drivers/STM32F4xx_HAL_Driver/Src/stm32f4xx_hal_hcd.c ****     (void)USB_HC_Halt(hhcd->Instance, (uint8_t)ch_num);
1333:Drivers/STM32F4xx_HAL_Driver/Src/stm32f4xx_hal_hcd.c ****     __HAL_HCD_CLEAR_HC_INT(ch_num, USB_OTG_HCINT_TXERR);
1334:Drivers/STM32F4xx_HAL_Driver/Src/stm32f4xx_hal_hcd.c ****   }
1335:Drivers/STM32F4xx_HAL_Driver/Src/stm32f4xx_hal_hcd.c ****   else if ((USBx_HC(ch_num)->HCINT & USB_OTG_HCINT_NAK) == USB_OTG_HCINT_NAK)
1336:Drivers/STM32F4xx_HAL_Driver/Src/stm32f4xx_hal_hcd.c ****   {
1337:Drivers/STM32F4xx_HAL_Driver/Src/stm32f4xx_hal_hcd.c ****     if (hhcd->hc[ch_num].ep_type == EP_TYPE_INTR)
1338:Drivers/STM32F4xx_HAL_Driver/Src/stm32f4xx_hal_hcd.c ****     {
1339:Drivers/STM32F4xx_HAL_Driver/Src/stm32f4xx_hal_hcd.c ****       hhcd->hc[ch_num].ErrCnt = 0U;
1340:Drivers/STM32F4xx_HAL_Driver/Src/stm32f4xx_hal_hcd.c ****       __HAL_HCD_UNMASK_HALT_HC_INT(ch_num);
1341:Drivers/STM32F4xx_HAL_Driver/Src/stm32f4xx_hal_hcd.c ****       (void)USB_HC_Halt(hhcd->Instance, (uint8_t)ch_num);
ARM GAS  /tmp/ccJjbwbP.s 			page 25


1342:Drivers/STM32F4xx_HAL_Driver/Src/stm32f4xx_hal_hcd.c ****     }
1343:Drivers/STM32F4xx_HAL_Driver/Src/stm32f4xx_hal_hcd.c ****     else if ((hhcd->hc[ch_num].ep_type == EP_TYPE_CTRL) ||
1344:Drivers/STM32F4xx_HAL_Driver/Src/stm32f4xx_hal_hcd.c ****              (hhcd->hc[ch_num].ep_type == EP_TYPE_BULK))
1345:Drivers/STM32F4xx_HAL_Driver/Src/stm32f4xx_hal_hcd.c ****     {
1346:Drivers/STM32F4xx_HAL_Driver/Src/stm32f4xx_hal_hcd.c ****       hhcd->hc[ch_num].ErrCnt = 0U;
1347:Drivers/STM32F4xx_HAL_Driver/Src/stm32f4xx_hal_hcd.c **** 
1348:Drivers/STM32F4xx_HAL_Driver/Src/stm32f4xx_hal_hcd.c ****       if (hhcd->Init.dma_enable == 0U)
1349:Drivers/STM32F4xx_HAL_Driver/Src/stm32f4xx_hal_hcd.c ****       {
1350:Drivers/STM32F4xx_HAL_Driver/Src/stm32f4xx_hal_hcd.c ****         hhcd->hc[ch_num].state = HC_NAK;
1351:Drivers/STM32F4xx_HAL_Driver/Src/stm32f4xx_hal_hcd.c ****         __HAL_HCD_UNMASK_HALT_HC_INT(ch_num);
1352:Drivers/STM32F4xx_HAL_Driver/Src/stm32f4xx_hal_hcd.c ****         (void)USB_HC_Halt(hhcd->Instance, (uint8_t)ch_num);
1353:Drivers/STM32F4xx_HAL_Driver/Src/stm32f4xx_hal_hcd.c ****       }
1354:Drivers/STM32F4xx_HAL_Driver/Src/stm32f4xx_hal_hcd.c ****     }
1355:Drivers/STM32F4xx_HAL_Driver/Src/stm32f4xx_hal_hcd.c ****     else
1356:Drivers/STM32F4xx_HAL_Driver/Src/stm32f4xx_hal_hcd.c ****     {
1357:Drivers/STM32F4xx_HAL_Driver/Src/stm32f4xx_hal_hcd.c ****       /* ... */
1358:Drivers/STM32F4xx_HAL_Driver/Src/stm32f4xx_hal_hcd.c ****     }
1359:Drivers/STM32F4xx_HAL_Driver/Src/stm32f4xx_hal_hcd.c ****     __HAL_HCD_CLEAR_HC_INT(ch_num, USB_OTG_HCINT_NAK);
1360:Drivers/STM32F4xx_HAL_Driver/Src/stm32f4xx_hal_hcd.c ****   }
1361:Drivers/STM32F4xx_HAL_Driver/Src/stm32f4xx_hal_hcd.c ****   else
1362:Drivers/STM32F4xx_HAL_Driver/Src/stm32f4xx_hal_hcd.c ****   {
1363:Drivers/STM32F4xx_HAL_Driver/Src/stm32f4xx_hal_hcd.c ****     /* ... */
1364:Drivers/STM32F4xx_HAL_Driver/Src/stm32f4xx_hal_hcd.c ****   }
1365:Drivers/STM32F4xx_HAL_Driver/Src/stm32f4xx_hal_hcd.c **** }
1366:Drivers/STM32F4xx_HAL_Driver/Src/stm32f4xx_hal_hcd.c **** 
1367:Drivers/STM32F4xx_HAL_Driver/Src/stm32f4xx_hal_hcd.c **** /**
1368:Drivers/STM32F4xx_HAL_Driver/Src/stm32f4xx_hal_hcd.c ****   * @brief  Handle Host Channel OUT interrupt requests.
1369:Drivers/STM32F4xx_HAL_Driver/Src/stm32f4xx_hal_hcd.c ****   * @param  hhcd HCD handle
1370:Drivers/STM32F4xx_HAL_Driver/Src/stm32f4xx_hal_hcd.c ****   * @param  chnum Channel number.
1371:Drivers/STM32F4xx_HAL_Driver/Src/stm32f4xx_hal_hcd.c ****   *         This parameter can be a value from 1 to 15
1372:Drivers/STM32F4xx_HAL_Driver/Src/stm32f4xx_hal_hcd.c ****   * @retval none
1373:Drivers/STM32F4xx_HAL_Driver/Src/stm32f4xx_hal_hcd.c ****   */
1374:Drivers/STM32F4xx_HAL_Driver/Src/stm32f4xx_hal_hcd.c **** static void HCD_HC_OUT_IRQHandler(HCD_HandleTypeDef *hhcd, uint8_t chnum)
1375:Drivers/STM32F4xx_HAL_Driver/Src/stm32f4xx_hal_hcd.c **** {
1376:Drivers/STM32F4xx_HAL_Driver/Src/stm32f4xx_hal_hcd.c ****   USB_OTG_GlobalTypeDef *USBx = hhcd->Instance;
1377:Drivers/STM32F4xx_HAL_Driver/Src/stm32f4xx_hal_hcd.c ****   uint32_t USBx_BASE = (uint32_t)USBx;
1378:Drivers/STM32F4xx_HAL_Driver/Src/stm32f4xx_hal_hcd.c ****   uint32_t ch_num = (uint32_t)chnum;
1379:Drivers/STM32F4xx_HAL_Driver/Src/stm32f4xx_hal_hcd.c ****   uint32_t tmpreg;
1380:Drivers/STM32F4xx_HAL_Driver/Src/stm32f4xx_hal_hcd.c **** 
1381:Drivers/STM32F4xx_HAL_Driver/Src/stm32f4xx_hal_hcd.c ****   if ((USBx_HC(ch_num)->HCINT & USB_OTG_HCINT_AHBERR) == USB_OTG_HCINT_AHBERR)
1382:Drivers/STM32F4xx_HAL_Driver/Src/stm32f4xx_hal_hcd.c ****   {
1383:Drivers/STM32F4xx_HAL_Driver/Src/stm32f4xx_hal_hcd.c ****     __HAL_HCD_CLEAR_HC_INT(ch_num, USB_OTG_HCINT_AHBERR);
1384:Drivers/STM32F4xx_HAL_Driver/Src/stm32f4xx_hal_hcd.c ****     __HAL_HCD_UNMASK_HALT_HC_INT(ch_num);
1385:Drivers/STM32F4xx_HAL_Driver/Src/stm32f4xx_hal_hcd.c ****   }
1386:Drivers/STM32F4xx_HAL_Driver/Src/stm32f4xx_hal_hcd.c ****   else if ((USBx_HC(ch_num)->HCINT & USB_OTG_HCINT_ACK) == USB_OTG_HCINT_ACK)
1387:Drivers/STM32F4xx_HAL_Driver/Src/stm32f4xx_hal_hcd.c ****   {
1388:Drivers/STM32F4xx_HAL_Driver/Src/stm32f4xx_hal_hcd.c ****     __HAL_HCD_CLEAR_HC_INT(ch_num, USB_OTG_HCINT_ACK);
1389:Drivers/STM32F4xx_HAL_Driver/Src/stm32f4xx_hal_hcd.c **** 
1390:Drivers/STM32F4xx_HAL_Driver/Src/stm32f4xx_hal_hcd.c ****     if (hhcd->hc[ch_num].do_ping == 1U)
1391:Drivers/STM32F4xx_HAL_Driver/Src/stm32f4xx_hal_hcd.c ****     {
1392:Drivers/STM32F4xx_HAL_Driver/Src/stm32f4xx_hal_hcd.c ****       hhcd->hc[ch_num].do_ping = 0U;
1393:Drivers/STM32F4xx_HAL_Driver/Src/stm32f4xx_hal_hcd.c ****       hhcd->hc[ch_num].urb_state  = URB_NOTREADY;
1394:Drivers/STM32F4xx_HAL_Driver/Src/stm32f4xx_hal_hcd.c ****       __HAL_HCD_UNMASK_HALT_HC_INT(ch_num);
1395:Drivers/STM32F4xx_HAL_Driver/Src/stm32f4xx_hal_hcd.c ****       (void)USB_HC_Halt(hhcd->Instance, (uint8_t)ch_num);
1396:Drivers/STM32F4xx_HAL_Driver/Src/stm32f4xx_hal_hcd.c ****     }
1397:Drivers/STM32F4xx_HAL_Driver/Src/stm32f4xx_hal_hcd.c ****   }
1398:Drivers/STM32F4xx_HAL_Driver/Src/stm32f4xx_hal_hcd.c ****   else if ((USBx_HC(ch_num)->HCINT & USB_OTG_HCINT_NYET) == USB_OTG_HCINT_NYET)
ARM GAS  /tmp/ccJjbwbP.s 			page 26


1399:Drivers/STM32F4xx_HAL_Driver/Src/stm32f4xx_hal_hcd.c ****   {
1400:Drivers/STM32F4xx_HAL_Driver/Src/stm32f4xx_hal_hcd.c ****     hhcd->hc[ch_num].state = HC_NYET;
1401:Drivers/STM32F4xx_HAL_Driver/Src/stm32f4xx_hal_hcd.c ****     hhcd->hc[ch_num].do_ping = 1U;
1402:Drivers/STM32F4xx_HAL_Driver/Src/stm32f4xx_hal_hcd.c ****     hhcd->hc[ch_num].ErrCnt = 0U;
1403:Drivers/STM32F4xx_HAL_Driver/Src/stm32f4xx_hal_hcd.c ****     __HAL_HCD_UNMASK_HALT_HC_INT(ch_num);
1404:Drivers/STM32F4xx_HAL_Driver/Src/stm32f4xx_hal_hcd.c ****     (void)USB_HC_Halt(hhcd->Instance, (uint8_t)ch_num);
1405:Drivers/STM32F4xx_HAL_Driver/Src/stm32f4xx_hal_hcd.c ****     __HAL_HCD_CLEAR_HC_INT(ch_num, USB_OTG_HCINT_NYET);
1406:Drivers/STM32F4xx_HAL_Driver/Src/stm32f4xx_hal_hcd.c ****   }
1407:Drivers/STM32F4xx_HAL_Driver/Src/stm32f4xx_hal_hcd.c ****   else if ((USBx_HC(ch_num)->HCINT & USB_OTG_HCINT_FRMOR) == USB_OTG_HCINT_FRMOR)
1408:Drivers/STM32F4xx_HAL_Driver/Src/stm32f4xx_hal_hcd.c ****   {
1409:Drivers/STM32F4xx_HAL_Driver/Src/stm32f4xx_hal_hcd.c ****     __HAL_HCD_UNMASK_HALT_HC_INT(ch_num);
1410:Drivers/STM32F4xx_HAL_Driver/Src/stm32f4xx_hal_hcd.c ****     (void)USB_HC_Halt(hhcd->Instance, (uint8_t)ch_num);
1411:Drivers/STM32F4xx_HAL_Driver/Src/stm32f4xx_hal_hcd.c ****     __HAL_HCD_CLEAR_HC_INT(ch_num, USB_OTG_HCINT_FRMOR);
1412:Drivers/STM32F4xx_HAL_Driver/Src/stm32f4xx_hal_hcd.c ****   }
1413:Drivers/STM32F4xx_HAL_Driver/Src/stm32f4xx_hal_hcd.c ****   else if ((USBx_HC(ch_num)->HCINT & USB_OTG_HCINT_XFRC) == USB_OTG_HCINT_XFRC)
1414:Drivers/STM32F4xx_HAL_Driver/Src/stm32f4xx_hal_hcd.c ****   {
1415:Drivers/STM32F4xx_HAL_Driver/Src/stm32f4xx_hal_hcd.c ****     hhcd->hc[ch_num].ErrCnt = 0U;
1416:Drivers/STM32F4xx_HAL_Driver/Src/stm32f4xx_hal_hcd.c ****     __HAL_HCD_UNMASK_HALT_HC_INT(ch_num);
1417:Drivers/STM32F4xx_HAL_Driver/Src/stm32f4xx_hal_hcd.c ****     (void)USB_HC_Halt(hhcd->Instance, (uint8_t)ch_num);
1418:Drivers/STM32F4xx_HAL_Driver/Src/stm32f4xx_hal_hcd.c ****     __HAL_HCD_CLEAR_HC_INT(ch_num, USB_OTG_HCINT_XFRC);
1419:Drivers/STM32F4xx_HAL_Driver/Src/stm32f4xx_hal_hcd.c ****     hhcd->hc[ch_num].state = HC_XFRC;
1420:Drivers/STM32F4xx_HAL_Driver/Src/stm32f4xx_hal_hcd.c ****   }
1421:Drivers/STM32F4xx_HAL_Driver/Src/stm32f4xx_hal_hcd.c ****   else if ((USBx_HC(ch_num)->HCINT & USB_OTG_HCINT_STALL) == USB_OTG_HCINT_STALL)
1422:Drivers/STM32F4xx_HAL_Driver/Src/stm32f4xx_hal_hcd.c ****   {
1423:Drivers/STM32F4xx_HAL_Driver/Src/stm32f4xx_hal_hcd.c ****     __HAL_HCD_CLEAR_HC_INT(ch_num, USB_OTG_HCINT_STALL);
1424:Drivers/STM32F4xx_HAL_Driver/Src/stm32f4xx_hal_hcd.c ****     __HAL_HCD_UNMASK_HALT_HC_INT(ch_num);
1425:Drivers/STM32F4xx_HAL_Driver/Src/stm32f4xx_hal_hcd.c ****     (void)USB_HC_Halt(hhcd->Instance, (uint8_t)ch_num);
1426:Drivers/STM32F4xx_HAL_Driver/Src/stm32f4xx_hal_hcd.c ****     hhcd->hc[ch_num].state = HC_STALL;
1427:Drivers/STM32F4xx_HAL_Driver/Src/stm32f4xx_hal_hcd.c ****   }
1428:Drivers/STM32F4xx_HAL_Driver/Src/stm32f4xx_hal_hcd.c ****   else if ((USBx_HC(ch_num)->HCINT & USB_OTG_HCINT_NAK) == USB_OTG_HCINT_NAK)
1429:Drivers/STM32F4xx_HAL_Driver/Src/stm32f4xx_hal_hcd.c ****   {
1430:Drivers/STM32F4xx_HAL_Driver/Src/stm32f4xx_hal_hcd.c ****     hhcd->hc[ch_num].ErrCnt = 0U;
1431:Drivers/STM32F4xx_HAL_Driver/Src/stm32f4xx_hal_hcd.c ****     hhcd->hc[ch_num].state = HC_NAK;
1432:Drivers/STM32F4xx_HAL_Driver/Src/stm32f4xx_hal_hcd.c **** 
1433:Drivers/STM32F4xx_HAL_Driver/Src/stm32f4xx_hal_hcd.c ****     if (hhcd->hc[ch_num].do_ping == 0U)
1434:Drivers/STM32F4xx_HAL_Driver/Src/stm32f4xx_hal_hcd.c ****     {
1435:Drivers/STM32F4xx_HAL_Driver/Src/stm32f4xx_hal_hcd.c ****       if (hhcd->hc[ch_num].speed == HCD_SPEED_HIGH)
1436:Drivers/STM32F4xx_HAL_Driver/Src/stm32f4xx_hal_hcd.c ****       {
1437:Drivers/STM32F4xx_HAL_Driver/Src/stm32f4xx_hal_hcd.c ****         hhcd->hc[ch_num].do_ping = 1U;
1438:Drivers/STM32F4xx_HAL_Driver/Src/stm32f4xx_hal_hcd.c ****       }
1439:Drivers/STM32F4xx_HAL_Driver/Src/stm32f4xx_hal_hcd.c ****     }
1440:Drivers/STM32F4xx_HAL_Driver/Src/stm32f4xx_hal_hcd.c **** 
1441:Drivers/STM32F4xx_HAL_Driver/Src/stm32f4xx_hal_hcd.c ****     __HAL_HCD_UNMASK_HALT_HC_INT(ch_num);
1442:Drivers/STM32F4xx_HAL_Driver/Src/stm32f4xx_hal_hcd.c ****     (void)USB_HC_Halt(hhcd->Instance, (uint8_t)ch_num);
1443:Drivers/STM32F4xx_HAL_Driver/Src/stm32f4xx_hal_hcd.c ****     __HAL_HCD_CLEAR_HC_INT(ch_num, USB_OTG_HCINT_NAK);
1444:Drivers/STM32F4xx_HAL_Driver/Src/stm32f4xx_hal_hcd.c ****   }
1445:Drivers/STM32F4xx_HAL_Driver/Src/stm32f4xx_hal_hcd.c ****   else if ((USBx_HC(ch_num)->HCINT & USB_OTG_HCINT_TXERR) == USB_OTG_HCINT_TXERR)
1446:Drivers/STM32F4xx_HAL_Driver/Src/stm32f4xx_hal_hcd.c ****   {
1447:Drivers/STM32F4xx_HAL_Driver/Src/stm32f4xx_hal_hcd.c ****     __HAL_HCD_UNMASK_HALT_HC_INT(ch_num);
1448:Drivers/STM32F4xx_HAL_Driver/Src/stm32f4xx_hal_hcd.c ****     (void)USB_HC_Halt(hhcd->Instance, (uint8_t)ch_num);
1449:Drivers/STM32F4xx_HAL_Driver/Src/stm32f4xx_hal_hcd.c ****     hhcd->hc[ch_num].state = HC_XACTERR;
1450:Drivers/STM32F4xx_HAL_Driver/Src/stm32f4xx_hal_hcd.c ****     __HAL_HCD_CLEAR_HC_INT(ch_num, USB_OTG_HCINT_TXERR);
1451:Drivers/STM32F4xx_HAL_Driver/Src/stm32f4xx_hal_hcd.c ****   }
1452:Drivers/STM32F4xx_HAL_Driver/Src/stm32f4xx_hal_hcd.c ****   else if ((USBx_HC(ch_num)->HCINT & USB_OTG_HCINT_DTERR) == USB_OTG_HCINT_DTERR)
1453:Drivers/STM32F4xx_HAL_Driver/Src/stm32f4xx_hal_hcd.c ****   {
1454:Drivers/STM32F4xx_HAL_Driver/Src/stm32f4xx_hal_hcd.c ****     __HAL_HCD_UNMASK_HALT_HC_INT(ch_num);
1455:Drivers/STM32F4xx_HAL_Driver/Src/stm32f4xx_hal_hcd.c ****     (void)USB_HC_Halt(hhcd->Instance, (uint8_t)ch_num);
ARM GAS  /tmp/ccJjbwbP.s 			page 27


1456:Drivers/STM32F4xx_HAL_Driver/Src/stm32f4xx_hal_hcd.c ****     __HAL_HCD_CLEAR_HC_INT(ch_num, USB_OTG_HCINT_NAK);
1457:Drivers/STM32F4xx_HAL_Driver/Src/stm32f4xx_hal_hcd.c ****     __HAL_HCD_CLEAR_HC_INT(ch_num, USB_OTG_HCINT_DTERR);
1458:Drivers/STM32F4xx_HAL_Driver/Src/stm32f4xx_hal_hcd.c ****     hhcd->hc[ch_num].state = HC_DATATGLERR;
1459:Drivers/STM32F4xx_HAL_Driver/Src/stm32f4xx_hal_hcd.c ****   }
1460:Drivers/STM32F4xx_HAL_Driver/Src/stm32f4xx_hal_hcd.c ****   else if ((USBx_HC(ch_num)->HCINT & USB_OTG_HCINT_CHH) == USB_OTG_HCINT_CHH)
1461:Drivers/STM32F4xx_HAL_Driver/Src/stm32f4xx_hal_hcd.c ****   {
1462:Drivers/STM32F4xx_HAL_Driver/Src/stm32f4xx_hal_hcd.c ****     __HAL_HCD_MASK_HALT_HC_INT(ch_num);
1463:Drivers/STM32F4xx_HAL_Driver/Src/stm32f4xx_hal_hcd.c **** 
1464:Drivers/STM32F4xx_HAL_Driver/Src/stm32f4xx_hal_hcd.c ****     if (hhcd->hc[ch_num].state == HC_XFRC)
1465:Drivers/STM32F4xx_HAL_Driver/Src/stm32f4xx_hal_hcd.c ****     {
1466:Drivers/STM32F4xx_HAL_Driver/Src/stm32f4xx_hal_hcd.c ****       hhcd->hc[ch_num].urb_state  = URB_DONE;
1467:Drivers/STM32F4xx_HAL_Driver/Src/stm32f4xx_hal_hcd.c ****       if ((hhcd->hc[ch_num].ep_type == EP_TYPE_BULK) ||
1468:Drivers/STM32F4xx_HAL_Driver/Src/stm32f4xx_hal_hcd.c ****           (hhcd->hc[ch_num].ep_type == EP_TYPE_INTR))
1469:Drivers/STM32F4xx_HAL_Driver/Src/stm32f4xx_hal_hcd.c ****       {
1470:Drivers/STM32F4xx_HAL_Driver/Src/stm32f4xx_hal_hcd.c ****         hhcd->hc[ch_num].toggle_out ^= 1U;
1471:Drivers/STM32F4xx_HAL_Driver/Src/stm32f4xx_hal_hcd.c ****       }
1472:Drivers/STM32F4xx_HAL_Driver/Src/stm32f4xx_hal_hcd.c ****     }
1473:Drivers/STM32F4xx_HAL_Driver/Src/stm32f4xx_hal_hcd.c ****     else if (hhcd->hc[ch_num].state == HC_NAK)
1474:Drivers/STM32F4xx_HAL_Driver/Src/stm32f4xx_hal_hcd.c ****     {
1475:Drivers/STM32F4xx_HAL_Driver/Src/stm32f4xx_hal_hcd.c ****       hhcd->hc[ch_num].urb_state = URB_NOTREADY;
1476:Drivers/STM32F4xx_HAL_Driver/Src/stm32f4xx_hal_hcd.c ****     }
1477:Drivers/STM32F4xx_HAL_Driver/Src/stm32f4xx_hal_hcd.c ****     else if (hhcd->hc[ch_num].state == HC_NYET)
1478:Drivers/STM32F4xx_HAL_Driver/Src/stm32f4xx_hal_hcd.c ****     {
1479:Drivers/STM32F4xx_HAL_Driver/Src/stm32f4xx_hal_hcd.c ****       hhcd->hc[ch_num].urb_state  = URB_NOTREADY;
1480:Drivers/STM32F4xx_HAL_Driver/Src/stm32f4xx_hal_hcd.c ****     }
1481:Drivers/STM32F4xx_HAL_Driver/Src/stm32f4xx_hal_hcd.c ****     else if (hhcd->hc[ch_num].state == HC_STALL)
1482:Drivers/STM32F4xx_HAL_Driver/Src/stm32f4xx_hal_hcd.c ****     {
1483:Drivers/STM32F4xx_HAL_Driver/Src/stm32f4xx_hal_hcd.c ****       hhcd->hc[ch_num].urb_state  = URB_STALL;
1484:Drivers/STM32F4xx_HAL_Driver/Src/stm32f4xx_hal_hcd.c ****     }
1485:Drivers/STM32F4xx_HAL_Driver/Src/stm32f4xx_hal_hcd.c ****     else if ((hhcd->hc[ch_num].state == HC_XACTERR) ||
1486:Drivers/STM32F4xx_HAL_Driver/Src/stm32f4xx_hal_hcd.c ****              (hhcd->hc[ch_num].state == HC_DATATGLERR))
1487:Drivers/STM32F4xx_HAL_Driver/Src/stm32f4xx_hal_hcd.c ****     {
1488:Drivers/STM32F4xx_HAL_Driver/Src/stm32f4xx_hal_hcd.c ****       hhcd->hc[ch_num].ErrCnt++;
1489:Drivers/STM32F4xx_HAL_Driver/Src/stm32f4xx_hal_hcd.c ****       if (hhcd->hc[ch_num].ErrCnt > 3U)
1490:Drivers/STM32F4xx_HAL_Driver/Src/stm32f4xx_hal_hcd.c ****       {
1491:Drivers/STM32F4xx_HAL_Driver/Src/stm32f4xx_hal_hcd.c ****         hhcd->hc[ch_num].ErrCnt = 0U;
1492:Drivers/STM32F4xx_HAL_Driver/Src/stm32f4xx_hal_hcd.c ****         hhcd->hc[ch_num].urb_state = URB_ERROR;
1493:Drivers/STM32F4xx_HAL_Driver/Src/stm32f4xx_hal_hcd.c ****       }
1494:Drivers/STM32F4xx_HAL_Driver/Src/stm32f4xx_hal_hcd.c ****       else
1495:Drivers/STM32F4xx_HAL_Driver/Src/stm32f4xx_hal_hcd.c ****       {
1496:Drivers/STM32F4xx_HAL_Driver/Src/stm32f4xx_hal_hcd.c ****         hhcd->hc[ch_num].urb_state = URB_NOTREADY;
1497:Drivers/STM32F4xx_HAL_Driver/Src/stm32f4xx_hal_hcd.c ****       }
1498:Drivers/STM32F4xx_HAL_Driver/Src/stm32f4xx_hal_hcd.c **** 
1499:Drivers/STM32F4xx_HAL_Driver/Src/stm32f4xx_hal_hcd.c ****       /* re-activate the channel  */
1500:Drivers/STM32F4xx_HAL_Driver/Src/stm32f4xx_hal_hcd.c ****       tmpreg = USBx_HC(ch_num)->HCCHAR;
1501:Drivers/STM32F4xx_HAL_Driver/Src/stm32f4xx_hal_hcd.c ****       tmpreg &= ~USB_OTG_HCCHAR_CHDIS;
1502:Drivers/STM32F4xx_HAL_Driver/Src/stm32f4xx_hal_hcd.c ****       tmpreg |= USB_OTG_HCCHAR_CHENA;
1503:Drivers/STM32F4xx_HAL_Driver/Src/stm32f4xx_hal_hcd.c ****       USBx_HC(ch_num)->HCCHAR = tmpreg;
1504:Drivers/STM32F4xx_HAL_Driver/Src/stm32f4xx_hal_hcd.c ****     }
1505:Drivers/STM32F4xx_HAL_Driver/Src/stm32f4xx_hal_hcd.c ****     else
1506:Drivers/STM32F4xx_HAL_Driver/Src/stm32f4xx_hal_hcd.c ****     {
1507:Drivers/STM32F4xx_HAL_Driver/Src/stm32f4xx_hal_hcd.c ****       /* ... */
1508:Drivers/STM32F4xx_HAL_Driver/Src/stm32f4xx_hal_hcd.c ****     }
1509:Drivers/STM32F4xx_HAL_Driver/Src/stm32f4xx_hal_hcd.c **** 
1510:Drivers/STM32F4xx_HAL_Driver/Src/stm32f4xx_hal_hcd.c ****     __HAL_HCD_CLEAR_HC_INT(ch_num, USB_OTG_HCINT_CHH);
1511:Drivers/STM32F4xx_HAL_Driver/Src/stm32f4xx_hal_hcd.c ****     HAL_HCD_HC_NotifyURBChange_Callback(hhcd, (uint8_t)ch_num, hhcd->hc[ch_num].urb_state);
1512:Drivers/STM32F4xx_HAL_Driver/Src/stm32f4xx_hal_hcd.c ****   }
ARM GAS  /tmp/ccJjbwbP.s 			page 28


1513:Drivers/STM32F4xx_HAL_Driver/Src/stm32f4xx_hal_hcd.c ****   else
1514:Drivers/STM32F4xx_HAL_Driver/Src/stm32f4xx_hal_hcd.c ****   {
1515:Drivers/STM32F4xx_HAL_Driver/Src/stm32f4xx_hal_hcd.c ****     /* ... */
1516:Drivers/STM32F4xx_HAL_Driver/Src/stm32f4xx_hal_hcd.c ****   }
1517:Drivers/STM32F4xx_HAL_Driver/Src/stm32f4xx_hal_hcd.c **** }
1518:Drivers/STM32F4xx_HAL_Driver/Src/stm32f4xx_hal_hcd.c **** 
1519:Drivers/STM32F4xx_HAL_Driver/Src/stm32f4xx_hal_hcd.c **** /**
1520:Drivers/STM32F4xx_HAL_Driver/Src/stm32f4xx_hal_hcd.c ****   * @brief  Handle Rx Queue Level interrupt requests.
1521:Drivers/STM32F4xx_HAL_Driver/Src/stm32f4xx_hal_hcd.c ****   * @param  hhcd HCD handle
1522:Drivers/STM32F4xx_HAL_Driver/Src/stm32f4xx_hal_hcd.c ****   * @retval none
1523:Drivers/STM32F4xx_HAL_Driver/Src/stm32f4xx_hal_hcd.c ****   */
1524:Drivers/STM32F4xx_HAL_Driver/Src/stm32f4xx_hal_hcd.c **** static void HCD_RXQLVL_IRQHandler(HCD_HandleTypeDef *hhcd)
1525:Drivers/STM32F4xx_HAL_Driver/Src/stm32f4xx_hal_hcd.c **** {
  29              		.loc 1 1525 1 view -0
  30              		.cfi_startproc
  31              		@ args = 0, pretend = 0, frame = 0
  32              		@ frame_needed = 0, uses_anonymous_args = 0
  33              		.loc 1 1525 1 is_stmt 0 view .LVU1
  34 0000 F8B5     		push	{r3, r4, r5, r6, r7, lr}
  35              	.LCFI0:
  36              		.cfi_def_cfa_offset 24
  37              		.cfi_offset 3, -24
  38              		.cfi_offset 4, -20
  39              		.cfi_offset 5, -16
  40              		.cfi_offset 6, -12
  41              		.cfi_offset 7, -8
  42              		.cfi_offset 14, -4
1526:Drivers/STM32F4xx_HAL_Driver/Src/stm32f4xx_hal_hcd.c ****   USB_OTG_GlobalTypeDef *USBx = hhcd->Instance;
  43              		.loc 1 1526 3 is_stmt 1 view .LVU2
  44              		.loc 1 1526 26 is_stmt 0 view .LVU3
  45 0002 0668     		ldr	r6, [r0]
  46              	.LVL1:
1527:Drivers/STM32F4xx_HAL_Driver/Src/stm32f4xx_hal_hcd.c ****   uint32_t USBx_BASE = (uint32_t)USBx;
  47              		.loc 1 1527 3 is_stmt 1 view .LVU4
1528:Drivers/STM32F4xx_HAL_Driver/Src/stm32f4xx_hal_hcd.c ****   uint32_t pktsts;
  48              		.loc 1 1528 3 view .LVU5
1529:Drivers/STM32F4xx_HAL_Driver/Src/stm32f4xx_hal_hcd.c ****   uint32_t pktcnt;
  49              		.loc 1 1529 3 view .LVU6
1530:Drivers/STM32F4xx_HAL_Driver/Src/stm32f4xx_hal_hcd.c ****   uint32_t temp;
  50              		.loc 1 1530 3 view .LVU7
1531:Drivers/STM32F4xx_HAL_Driver/Src/stm32f4xx_hal_hcd.c ****   uint32_t tmpreg;
  51              		.loc 1 1531 3 view .LVU8
1532:Drivers/STM32F4xx_HAL_Driver/Src/stm32f4xx_hal_hcd.c ****   uint32_t ch_num;
  52              		.loc 1 1532 3 view .LVU9
1533:Drivers/STM32F4xx_HAL_Driver/Src/stm32f4xx_hal_hcd.c **** 
1534:Drivers/STM32F4xx_HAL_Driver/Src/stm32f4xx_hal_hcd.c ****   temp = hhcd->Instance->GRXSTSP;
  53              		.loc 1 1534 3 view .LVU10
  54              		.loc 1 1534 8 is_stmt 0 view .LVU11
  55 0004 346A     		ldr	r4, [r6, #32]
  56              	.LVL2:
1535:Drivers/STM32F4xx_HAL_Driver/Src/stm32f4xx_hal_hcd.c ****   ch_num = temp & USB_OTG_GRXSTSP_EPNUM;
  57              		.loc 1 1535 3 is_stmt 1 view .LVU12
  58              		.loc 1 1535 10 is_stmt 0 view .LVU13
  59 0006 04F00F07 		and	r7, r4, #15
  60              	.LVL3:
1536:Drivers/STM32F4xx_HAL_Driver/Src/stm32f4xx_hal_hcd.c ****   pktsts = (temp & USB_OTG_GRXSTSP_PKTSTS) >> 17;
  61              		.loc 1 1536 3 is_stmt 1 view .LVU14
ARM GAS  /tmp/ccJjbwbP.s 			page 29


  62              		.loc 1 1536 10 is_stmt 0 view .LVU15
  63 000a C4F34343 		ubfx	r3, r4, #17, #4
  64              	.LVL4:
1537:Drivers/STM32F4xx_HAL_Driver/Src/stm32f4xx_hal_hcd.c ****   pktcnt = (temp & USB_OTG_GRXSTSP_BCNT) >> 4;
  65              		.loc 1 1537 3 is_stmt 1 view .LVU16
  66              		.loc 1 1537 10 is_stmt 0 view .LVU17
  67 000e C4F30A14 		ubfx	r4, r4, #4, #11
  68              	.LVL5:
1538:Drivers/STM32F4xx_HAL_Driver/Src/stm32f4xx_hal_hcd.c **** 
1539:Drivers/STM32F4xx_HAL_Driver/Src/stm32f4xx_hal_hcd.c ****   switch (pktsts)
  69              		.loc 1 1539 3 is_stmt 1 view .LVU18
  70 0012 022B     		cmp	r3, #2
  71 0014 00D0     		beq	.L4
  72              	.LVL6:
  73              	.L1:
1540:Drivers/STM32F4xx_HAL_Driver/Src/stm32f4xx_hal_hcd.c ****   {
1541:Drivers/STM32F4xx_HAL_Driver/Src/stm32f4xx_hal_hcd.c ****     case GRXSTS_PKTSTS_IN:
1542:Drivers/STM32F4xx_HAL_Driver/Src/stm32f4xx_hal_hcd.c ****       /* Read the data into the host buffer. */
1543:Drivers/STM32F4xx_HAL_Driver/Src/stm32f4xx_hal_hcd.c ****       if ((pktcnt > 0U) && (hhcd->hc[ch_num].xfer_buff != (void *)0))
1544:Drivers/STM32F4xx_HAL_Driver/Src/stm32f4xx_hal_hcd.c ****       {
1545:Drivers/STM32F4xx_HAL_Driver/Src/stm32f4xx_hal_hcd.c ****         (void)USB_ReadPacket(hhcd->Instance, hhcd->hc[ch_num].xfer_buff, (uint16_t)pktcnt);
1546:Drivers/STM32F4xx_HAL_Driver/Src/stm32f4xx_hal_hcd.c **** 
1547:Drivers/STM32F4xx_HAL_Driver/Src/stm32f4xx_hal_hcd.c ****         /*manage multiple Xfer */
1548:Drivers/STM32F4xx_HAL_Driver/Src/stm32f4xx_hal_hcd.c ****         hhcd->hc[ch_num].xfer_buff += pktcnt;
1549:Drivers/STM32F4xx_HAL_Driver/Src/stm32f4xx_hal_hcd.c ****         hhcd->hc[ch_num].xfer_count  += pktcnt;
1550:Drivers/STM32F4xx_HAL_Driver/Src/stm32f4xx_hal_hcd.c **** 
1551:Drivers/STM32F4xx_HAL_Driver/Src/stm32f4xx_hal_hcd.c ****         if ((USBx_HC(ch_num)->HCTSIZ & USB_OTG_HCTSIZ_PKTCNT) > 0U)
1552:Drivers/STM32F4xx_HAL_Driver/Src/stm32f4xx_hal_hcd.c ****         {
1553:Drivers/STM32F4xx_HAL_Driver/Src/stm32f4xx_hal_hcd.c ****           /* re-activate the channel when more packets are expected */
1554:Drivers/STM32F4xx_HAL_Driver/Src/stm32f4xx_hal_hcd.c ****           tmpreg = USBx_HC(ch_num)->HCCHAR;
1555:Drivers/STM32F4xx_HAL_Driver/Src/stm32f4xx_hal_hcd.c ****           tmpreg &= ~USB_OTG_HCCHAR_CHDIS;
1556:Drivers/STM32F4xx_HAL_Driver/Src/stm32f4xx_hal_hcd.c ****           tmpreg |= USB_OTG_HCCHAR_CHENA;
1557:Drivers/STM32F4xx_HAL_Driver/Src/stm32f4xx_hal_hcd.c ****           USBx_HC(ch_num)->HCCHAR = tmpreg;
1558:Drivers/STM32F4xx_HAL_Driver/Src/stm32f4xx_hal_hcd.c ****           hhcd->hc[ch_num].toggle_in ^= 1U;
1559:Drivers/STM32F4xx_HAL_Driver/Src/stm32f4xx_hal_hcd.c ****         }
1560:Drivers/STM32F4xx_HAL_Driver/Src/stm32f4xx_hal_hcd.c ****       }
1561:Drivers/STM32F4xx_HAL_Driver/Src/stm32f4xx_hal_hcd.c ****       break;
1562:Drivers/STM32F4xx_HAL_Driver/Src/stm32f4xx_hal_hcd.c **** 
1563:Drivers/STM32F4xx_HAL_Driver/Src/stm32f4xx_hal_hcd.c ****     case GRXSTS_PKTSTS_DATA_TOGGLE_ERR:
1564:Drivers/STM32F4xx_HAL_Driver/Src/stm32f4xx_hal_hcd.c ****       break;
1565:Drivers/STM32F4xx_HAL_Driver/Src/stm32f4xx_hal_hcd.c **** 
1566:Drivers/STM32F4xx_HAL_Driver/Src/stm32f4xx_hal_hcd.c ****     case GRXSTS_PKTSTS_IN_XFER_COMP:
1567:Drivers/STM32F4xx_HAL_Driver/Src/stm32f4xx_hal_hcd.c ****     case GRXSTS_PKTSTS_CH_HALTED:
1568:Drivers/STM32F4xx_HAL_Driver/Src/stm32f4xx_hal_hcd.c ****     default:
1569:Drivers/STM32F4xx_HAL_Driver/Src/stm32f4xx_hal_hcd.c ****       break;
1570:Drivers/STM32F4xx_HAL_Driver/Src/stm32f4xx_hal_hcd.c ****   }
1571:Drivers/STM32F4xx_HAL_Driver/Src/stm32f4xx_hal_hcd.c **** }
  74              		.loc 1 1571 1 is_stmt 0 view .LVU19
  75 0016 F8BD     		pop	{r3, r4, r5, r6, r7, pc}
  76              	.LVL7:
  77              	.L4:
  78              		.loc 1 1571 1 view .LVU20
  79 0018 0546     		mov	r5, r0
1543:Drivers/STM32F4xx_HAL_Driver/Src/stm32f4xx_hal_hcd.c ****       {
  80              		.loc 1 1543 7 is_stmt 1 view .LVU21
1543:Drivers/STM32F4xx_HAL_Driver/Src/stm32f4xx_hal_hcd.c ****       {
  81              		.loc 1 1543 10 is_stmt 0 view .LVU22
ARM GAS  /tmp/ccJjbwbP.s 			page 30


  82 001a 002C     		cmp	r4, #0
  83 001c FBD0     		beq	.L1
1543:Drivers/STM32F4xx_HAL_Driver/Src/stm32f4xx_hal_hcd.c ****       {
  84              		.loc 1 1543 45 discriminator 1 view .LVU23
  85 001e 07EB8703 		add	r3, r7, r7, lsl #2
  86              	.LVL8:
1543:Drivers/STM32F4xx_HAL_Driver/Src/stm32f4xx_hal_hcd.c ****       {
  87              		.loc 1 1543 45 discriminator 1 view .LVU24
  88 0022 00EBC303 		add	r3, r0, r3, lsl #3
  89 0026 596C     		ldr	r1, [r3, #68]
1543:Drivers/STM32F4xx_HAL_Driver/Src/stm32f4xx_hal_hcd.c ****       {
  90              		.loc 1 1543 25 discriminator 1 view .LVU25
  91 0028 0029     		cmp	r1, #0
  92 002a F4D0     		beq	.L1
1545:Drivers/STM32F4xx_HAL_Driver/Src/stm32f4xx_hal_hcd.c **** 
  93              		.loc 1 1545 9 is_stmt 1 view .LVU26
1545:Drivers/STM32F4xx_HAL_Driver/Src/stm32f4xx_hal_hcd.c **** 
  94              		.loc 1 1545 15 is_stmt 0 view .LVU27
  95 002c 2246     		mov	r2, r4
  96 002e 3046     		mov	r0, r6
  97              	.LVL9:
1545:Drivers/STM32F4xx_HAL_Driver/Src/stm32f4xx_hal_hcd.c **** 
  98              		.loc 1 1545 15 view .LVU28
  99 0030 FFF7FEFF 		bl	USB_ReadPacket
 100              	.LVL10:
1548:Drivers/STM32F4xx_HAL_Driver/Src/stm32f4xx_hal_hcd.c ****         hhcd->hc[ch_num].xfer_count  += pktcnt;
 101              		.loc 1 1548 9 is_stmt 1 view .LVU29
1548:Drivers/STM32F4xx_HAL_Driver/Src/stm32f4xx_hal_hcd.c ****         hhcd->hc[ch_num].xfer_count  += pktcnt;
 102              		.loc 1 1548 36 is_stmt 0 view .LVU30
 103 0034 07EB8703 		add	r3, r7, r7, lsl #2
 104 0038 05EBC303 		add	r3, r5, r3, lsl #3
 105 003c 5A6C     		ldr	r2, [r3, #68]
 106 003e 2244     		add	r2, r2, r4
 107 0040 5A64     		str	r2, [r3, #68]
1549:Drivers/STM32F4xx_HAL_Driver/Src/stm32f4xx_hal_hcd.c **** 
 108              		.loc 1 1549 9 is_stmt 1 view .LVU31
1549:Drivers/STM32F4xx_HAL_Driver/Src/stm32f4xx_hal_hcd.c **** 
 109              		.loc 1 1549 38 is_stmt 0 view .LVU32
 110 0042 DA6C     		ldr	r2, [r3, #76]
 111 0044 2244     		add	r2, r2, r4
 112 0046 DA64     		str	r2, [r3, #76]
1551:Drivers/STM32F4xx_HAL_Driver/Src/stm32f4xx_hal_hcd.c ****         {
 113              		.loc 1 1551 9 is_stmt 1 view .LVU33
1551:Drivers/STM32F4xx_HAL_Driver/Src/stm32f4xx_hal_hcd.c ****         {
 114              		.loc 1 1551 14 is_stmt 0 view .LVU34
 115 0048 06EB4716 		add	r6, r6, r7, lsl #5
 116              	.LVL11:
1551:Drivers/STM32F4xx_HAL_Driver/Src/stm32f4xx_hal_hcd.c ****         {
 117              		.loc 1 1551 29 view .LVU35
 118 004c D6F81025 		ldr	r2, [r6, #1296]
1551:Drivers/STM32F4xx_HAL_Driver/Src/stm32f4xx_hal_hcd.c ****         {
 119              		.loc 1 1551 38 view .LVU36
 120 0050 0B4B     		ldr	r3, .L5
 121 0052 1340     		ands	r3, r3, r2
1551:Drivers/STM32F4xx_HAL_Driver/Src/stm32f4xx_hal_hcd.c ****         {
 122              		.loc 1 1551 12 view .LVU37
 123 0054 002B     		cmp	r3, #0
ARM GAS  /tmp/ccJjbwbP.s 			page 31


 124 0056 DED0     		beq	.L1
1554:Drivers/STM32F4xx_HAL_Driver/Src/stm32f4xx_hal_hcd.c ****           tmpreg &= ~USB_OTG_HCCHAR_CHDIS;
 125              		.loc 1 1554 11 is_stmt 1 view .LVU38
1554:Drivers/STM32F4xx_HAL_Driver/Src/stm32f4xx_hal_hcd.c ****           tmpreg &= ~USB_OTG_HCCHAR_CHDIS;
 126              		.loc 1 1554 18 is_stmt 0 view .LVU39
 127 0058 D6F80035 		ldr	r3, [r6, #1280]
 128              	.LVL12:
1555:Drivers/STM32F4xx_HAL_Driver/Src/stm32f4xx_hal_hcd.c ****           tmpreg |= USB_OTG_HCCHAR_CHENA;
 129              		.loc 1 1555 11 is_stmt 1 view .LVU40
1555:Drivers/STM32F4xx_HAL_Driver/Src/stm32f4xx_hal_hcd.c ****           tmpreg |= USB_OTG_HCCHAR_CHENA;
 130              		.loc 1 1555 18 is_stmt 0 view .LVU41
 131 005c 23F08043 		bic	r3, r3, #1073741824
 132              	.LVL13:
1556:Drivers/STM32F4xx_HAL_Driver/Src/stm32f4xx_hal_hcd.c ****           USBx_HC(ch_num)->HCCHAR = tmpreg;
 133              		.loc 1 1556 11 is_stmt 1 view .LVU42
1556:Drivers/STM32F4xx_HAL_Driver/Src/stm32f4xx_hal_hcd.c ****           USBx_HC(ch_num)->HCCHAR = tmpreg;
 134              		.loc 1 1556 18 is_stmt 0 view .LVU43
 135 0060 43F00043 		orr	r3, r3, #-2147483648
 136              	.LVL14:
1557:Drivers/STM32F4xx_HAL_Driver/Src/stm32f4xx_hal_hcd.c ****           hhcd->hc[ch_num].toggle_in ^= 1U;
 137              		.loc 1 1557 11 is_stmt 1 view .LVU44
1557:Drivers/STM32F4xx_HAL_Driver/Src/stm32f4xx_hal_hcd.c ****           hhcd->hc[ch_num].toggle_in ^= 1U;
 138              		.loc 1 1557 35 is_stmt 0 view .LVU45
 139 0064 C6F80035 		str	r3, [r6, #1280]
1558:Drivers/STM32F4xx_HAL_Driver/Src/stm32f4xx_hal_hcd.c ****         }
 140              		.loc 1 1558 11 is_stmt 1 view .LVU46
1558:Drivers/STM32F4xx_HAL_Driver/Src/stm32f4xx_hal_hcd.c ****         }
 141              		.loc 1 1558 38 is_stmt 0 view .LVU47
 142 0068 07EB8703 		add	r3, r7, r7, lsl #2
 143              	.LVL15:
1558:Drivers/STM32F4xx_HAL_Driver/Src/stm32f4xx_hal_hcd.c ****         }
 144              		.loc 1 1558 38 view .LVU48
 145 006c 05EBC303 		add	r3, r5, r3, lsl #3
 146 0070 93F85020 		ldrb	r2, [r3, #80]	@ zero_extendqisi2
 147 0074 82F00102 		eor	r2, r2, #1
 148 0078 83F85020 		strb	r2, [r3, #80]
 149              	.LVL16:
 150              		.loc 1 1571 1 view .LVU49
 151 007c CBE7     		b	.L1
 152              	.L6:
 153 007e 00BF     		.align	2
 154              	.L5:
 155 0080 0000F81F 		.word	536346624
 156              		.cfi_endproc
 157              	.LFE156:
 159              		.section	.text.HAL_HCD_HC_Init,"ax",%progbits
 160              		.align	1
 161              		.global	HAL_HCD_HC_Init
 162              		.syntax unified
 163              		.thumb
 164              		.thumb_func
 165              		.fpu fpv4-sp-d16
 167              	HAL_HCD_HC_Init:
 168              	.LVL17:
 169              	.LFB131:
 208:Drivers/STM32F4xx_HAL_Driver/Src/stm32f4xx_hal_hcd.c ****   HAL_StatusTypeDef status;
 170              		.loc 1 208 1 is_stmt 1 view -0
ARM GAS  /tmp/ccJjbwbP.s 			page 32


 171              		.cfi_startproc
 172              		@ args = 12, pretend = 0, frame = 0
 173              		@ frame_needed = 0, uses_anonymous_args = 0
 208:Drivers/STM32F4xx_HAL_Driver/Src/stm32f4xx_hal_hcd.c ****   HAL_StatusTypeDef status;
 174              		.loc 1 208 1 is_stmt 0 view .LVU51
 175 0000 F0B5     		push	{r4, r5, r6, r7, lr}
 176              	.LCFI1:
 177              		.cfi_def_cfa_offset 20
 178              		.cfi_offset 4, -20
 179              		.cfi_offset 5, -16
 180              		.cfi_offset 6, -12
 181              		.cfi_offset 7, -8
 182              		.cfi_offset 14, -4
 183 0002 85B0     		sub	sp, sp, #20
 184              	.LCFI2:
 185              		.cfi_def_cfa_offset 40
 186 0004 0446     		mov	r4, r0
 187 0006 9DF82850 		ldrb	r5, [sp, #40]	@ zero_extendqisi2
 188 000a 9DF82C60 		ldrb	r6, [sp, #44]	@ zero_extendqisi2
 189 000e BDF83070 		ldrh	r7, [sp, #48]
 209:Drivers/STM32F4xx_HAL_Driver/Src/stm32f4xx_hal_hcd.c **** 
 190              		.loc 1 209 3 is_stmt 1 view .LVU52
 211:Drivers/STM32F4xx_HAL_Driver/Src/stm32f4xx_hal_hcd.c ****   hhcd->hc[ch_num].do_ping = 0U;
 191              		.loc 1 211 3 view .LVU53
 211:Drivers/STM32F4xx_HAL_Driver/Src/stm32f4xx_hal_hcd.c ****   hhcd->hc[ch_num].do_ping = 0U;
 192              		.loc 1 211 3 view .LVU54
 193 0012 90F8B802 		ldrb	r0, [r0, #696]	@ zero_extendqisi2
 194              	.LVL18:
 211:Drivers/STM32F4xx_HAL_Driver/Src/stm32f4xx_hal_hcd.c ****   hhcd->hc[ch_num].do_ping = 0U;
 195              		.loc 1 211 3 is_stmt 0 view .LVU55
 196 0016 0128     		cmp	r0, #1
 197 0018 3BD0     		beq	.L11
 211:Drivers/STM32F4xx_HAL_Driver/Src/stm32f4xx_hal_hcd.c ****   hhcd->hc[ch_num].do_ping = 0U;
 198              		.loc 1 211 3 is_stmt 1 discriminator 2 view .LVU56
 199 001a 0120     		movs	r0, #1
 200 001c 84F8B802 		strb	r0, [r4, #696]
 211:Drivers/STM32F4xx_HAL_Driver/Src/stm32f4xx_hal_hcd.c ****   hhcd->hc[ch_num].do_ping = 0U;
 201              		.loc 1 211 3 discriminator 2 view .LVU57
 212:Drivers/STM32F4xx_HAL_Driver/Src/stm32f4xx_hal_hcd.c ****   hhcd->hc[ch_num].dev_addr = dev_address;
 202              		.loc 1 212 3 discriminator 2 view .LVU58
 212:Drivers/STM32F4xx_HAL_Driver/Src/stm32f4xx_hal_hcd.c ****   hhcd->hc[ch_num].dev_addr = dev_address;
 203              		.loc 1 212 28 is_stmt 0 discriminator 2 view .LVU59
 204 0020 01EB8100 		add	r0, r1, r1, lsl #2
 205 0024 04EBC000 		add	r0, r4, r0, lsl #3
 206 0028 4FF0000C 		mov	ip, #0
 207 002c 80F83DC0 		strb	ip, [r0, #61]
 213:Drivers/STM32F4xx_HAL_Driver/Src/stm32f4xx_hal_hcd.c ****   hhcd->hc[ch_num].max_packet = mps;
 208              		.loc 1 213 3 is_stmt 1 discriminator 2 view .LVU60
 213:Drivers/STM32F4xx_HAL_Driver/Src/stm32f4xx_hal_hcd.c ****   hhcd->hc[ch_num].max_packet = mps;
 209              		.loc 1 213 29 is_stmt 0 discriminator 2 view .LVU61
 210 0030 80F83830 		strb	r3, [r0, #56]
 214:Drivers/STM32F4xx_HAL_Driver/Src/stm32f4xx_hal_hcd.c ****   hhcd->hc[ch_num].ch_num = ch_num;
 211              		.loc 1 214 3 is_stmt 1 discriminator 2 view .LVU62
 214:Drivers/STM32F4xx_HAL_Driver/Src/stm32f4xx_hal_hcd.c ****   hhcd->hc[ch_num].ch_num = ch_num;
 212              		.loc 1 214 31 is_stmt 0 discriminator 2 view .LVU63
 213 0034 A0F84070 		strh	r7, [r0, #64]	@ movhi
 215:Drivers/STM32F4xx_HAL_Driver/Src/stm32f4xx_hal_hcd.c ****   hhcd->hc[ch_num].ep_type = ep_type;
ARM GAS  /tmp/ccJjbwbP.s 			page 33


 214              		.loc 1 215 3 is_stmt 1 discriminator 2 view .LVU64
 215:Drivers/STM32F4xx_HAL_Driver/Src/stm32f4xx_hal_hcd.c ****   hhcd->hc[ch_num].ep_type = ep_type;
 215              		.loc 1 215 27 is_stmt 0 discriminator 2 view .LVU65
 216 0038 80F83910 		strb	r1, [r0, #57]
 216:Drivers/STM32F4xx_HAL_Driver/Src/stm32f4xx_hal_hcd.c ****   hhcd->hc[ch_num].ep_num = epnum & 0x7FU;
 217              		.loc 1 216 3 is_stmt 1 discriminator 2 view .LVU66
 216:Drivers/STM32F4xx_HAL_Driver/Src/stm32f4xx_hal_hcd.c ****   hhcd->hc[ch_num].ep_num = epnum & 0x7FU;
 218              		.loc 1 216 28 is_stmt 0 discriminator 2 view .LVU67
 219 003c 80F83F60 		strb	r6, [r0, #63]
 217:Drivers/STM32F4xx_HAL_Driver/Src/stm32f4xx_hal_hcd.c **** 
 220              		.loc 1 217 3 is_stmt 1 discriminator 2 view .LVU68
 217:Drivers/STM32F4xx_HAL_Driver/Src/stm32f4xx_hal_hcd.c **** 
 221              		.loc 1 217 35 is_stmt 0 discriminator 2 view .LVU69
 222 0040 02F07F0C 		and	ip, r2, #127
 217:Drivers/STM32F4xx_HAL_Driver/Src/stm32f4xx_hal_hcd.c **** 
 223              		.loc 1 217 27 discriminator 2 view .LVU70
 224 0044 80F83AC0 		strb	ip, [r0, #58]
 219:Drivers/STM32F4xx_HAL_Driver/Src/stm32f4xx_hal_hcd.c ****   {
 225              		.loc 1 219 3 is_stmt 1 discriminator 2 view .LVU71
 219:Drivers/STM32F4xx_HAL_Driver/Src/stm32f4xx_hal_hcd.c ****   {
 226              		.loc 1 219 6 is_stmt 0 discriminator 2 view .LVU72
 227 0048 12F0800F 		tst	r2, #128
 228 004c 18D1     		bne	.L13
 225:Drivers/STM32F4xx_HAL_Driver/Src/stm32f4xx_hal_hcd.c ****   }
 229              		.loc 1 225 5 is_stmt 1 view .LVU73
 225:Drivers/STM32F4xx_HAL_Driver/Src/stm32f4xx_hal_hcd.c ****   }
 230              		.loc 1 225 31 is_stmt 0 view .LVU74
 231 004e 01EB8100 		add	r0, r1, r1, lsl #2
 232 0052 04EBC000 		add	r0, r4, r0, lsl #3
 233 0056 4FF0000C 		mov	ip, #0
 234 005a 80F83BC0 		strb	ip, [r0, #59]
 235              	.L10:
 228:Drivers/STM32F4xx_HAL_Driver/Src/stm32f4xx_hal_hcd.c **** 
 236              		.loc 1 228 3 is_stmt 1 view .LVU75
 228:Drivers/STM32F4xx_HAL_Driver/Src/stm32f4xx_hal_hcd.c **** 
 237              		.loc 1 228 26 is_stmt 0 view .LVU76
 238 005e 01EB8100 		add	r0, r1, r1, lsl #2
 239 0062 04EBC000 		add	r0, r4, r0, lsl #3
 240 0066 80F83C50 		strb	r5, [r0, #60]
 230:Drivers/STM32F4xx_HAL_Driver/Src/stm32f4xx_hal_hcd.c ****                         ch_num,
 241              		.loc 1 230 3 is_stmt 1 view .LVU77
 230:Drivers/STM32F4xx_HAL_Driver/Src/stm32f4xx_hal_hcd.c ****                         ch_num,
 242              		.loc 1 230 13 is_stmt 0 view .LVU78
 243 006a 0297     		str	r7, [sp, #8]
 244 006c 0196     		str	r6, [sp, #4]
 245 006e 0095     		str	r5, [sp]
 246 0070 2068     		ldr	r0, [r4]
 247 0072 FFF7FEFF 		bl	USB_HC_Init
 248              	.LVL19:
 237:Drivers/STM32F4xx_HAL_Driver/Src/stm32f4xx_hal_hcd.c **** 
 249              		.loc 1 237 3 is_stmt 1 view .LVU79
 237:Drivers/STM32F4xx_HAL_Driver/Src/stm32f4xx_hal_hcd.c **** 
 250              		.loc 1 237 3 view .LVU80
 251 0076 0023     		movs	r3, #0
 252 0078 84F8B832 		strb	r3, [r4, #696]
 237:Drivers/STM32F4xx_HAL_Driver/Src/stm32f4xx_hal_hcd.c **** 
 253              		.loc 1 237 3 view .LVU81
ARM GAS  /tmp/ccJjbwbP.s 			page 34


 239:Drivers/STM32F4xx_HAL_Driver/Src/stm32f4xx_hal_hcd.c **** }
 254              		.loc 1 239 3 view .LVU82
 255              	.LVL20:
 256              	.L8:
 240:Drivers/STM32F4xx_HAL_Driver/Src/stm32f4xx_hal_hcd.c **** 
 257              		.loc 1 240 1 is_stmt 0 view .LVU83
 258 007c 05B0     		add	sp, sp, #20
 259              	.LCFI3:
 260              		.cfi_remember_state
 261              		.cfi_def_cfa_offset 20
 262              		@ sp needed
 263 007e F0BD     		pop	{r4, r5, r6, r7, pc}
 264              	.LVL21:
 265              	.L13:
 266              	.LCFI4:
 267              		.cfi_restore_state
 221:Drivers/STM32F4xx_HAL_Driver/Src/stm32f4xx_hal_hcd.c ****   }
 268              		.loc 1 221 5 is_stmt 1 view .LVU84
 221:Drivers/STM32F4xx_HAL_Driver/Src/stm32f4xx_hal_hcd.c ****   }
 269              		.loc 1 221 31 is_stmt 0 view .LVU85
 270 0080 01EB8100 		add	r0, r1, r1, lsl #2
 271 0084 04EBC000 		add	r0, r4, r0, lsl #3
 272 0088 4FF0010C 		mov	ip, #1
 273 008c 80F83BC0 		strb	ip, [r0, #59]
 274 0090 E5E7     		b	.L10
 275              	.L11:
 211:Drivers/STM32F4xx_HAL_Driver/Src/stm32f4xx_hal_hcd.c ****   hhcd->hc[ch_num].do_ping = 0U;
 276              		.loc 1 211 3 view .LVU86
 277 0092 0220     		movs	r0, #2
 278 0094 F2E7     		b	.L8
 279              		.cfi_endproc
 280              	.LFE131:
 282              		.section	.text.HAL_HCD_HC_Halt,"ax",%progbits
 283              		.align	1
 284              		.global	HAL_HCD_HC_Halt
 285              		.syntax unified
 286              		.thumb
 287              		.thumb_func
 288              		.fpu fpv4-sp-d16
 290              	HAL_HCD_HC_Halt:
 291              	.LVL22:
 292              	.LFB132:
 250:Drivers/STM32F4xx_HAL_Driver/Src/stm32f4xx_hal_hcd.c ****   HAL_StatusTypeDef status = HAL_OK;
 293              		.loc 1 250 1 is_stmt 1 view -0
 294              		.cfi_startproc
 295              		@ args = 0, pretend = 0, frame = 0
 296              		@ frame_needed = 0, uses_anonymous_args = 0
 251:Drivers/STM32F4xx_HAL_Driver/Src/stm32f4xx_hal_hcd.c **** 
 297              		.loc 1 251 3 view .LVU88
 253:Drivers/STM32F4xx_HAL_Driver/Src/stm32f4xx_hal_hcd.c ****   (void)USB_HC_Halt(hhcd->Instance, (uint8_t)ch_num);
 298              		.loc 1 253 3 view .LVU89
 253:Drivers/STM32F4xx_HAL_Driver/Src/stm32f4xx_hal_hcd.c ****   (void)USB_HC_Halt(hhcd->Instance, (uint8_t)ch_num);
 299              		.loc 1 253 3 view .LVU90
 300 0000 90F8B832 		ldrb	r3, [r0, #696]	@ zero_extendqisi2
 301 0004 012B     		cmp	r3, #1
 302 0006 0BD0     		beq	.L16
 250:Drivers/STM32F4xx_HAL_Driver/Src/stm32f4xx_hal_hcd.c ****   HAL_StatusTypeDef status = HAL_OK;
ARM GAS  /tmp/ccJjbwbP.s 			page 35


 303              		.loc 1 250 1 is_stmt 0 discriminator 2 view .LVU91
 304 0008 10B5     		push	{r4, lr}
 305              	.LCFI5:
 306              		.cfi_def_cfa_offset 8
 307              		.cfi_offset 4, -8
 308              		.cfi_offset 14, -4
 309 000a 0446     		mov	r4, r0
 253:Drivers/STM32F4xx_HAL_Driver/Src/stm32f4xx_hal_hcd.c ****   (void)USB_HC_Halt(hhcd->Instance, (uint8_t)ch_num);
 310              		.loc 1 253 3 is_stmt 1 discriminator 2 view .LVU92
 311 000c 0123     		movs	r3, #1
 312 000e 80F8B832 		strb	r3, [r0, #696]
 253:Drivers/STM32F4xx_HAL_Driver/Src/stm32f4xx_hal_hcd.c ****   (void)USB_HC_Halt(hhcd->Instance, (uint8_t)ch_num);
 313              		.loc 1 253 3 discriminator 2 view .LVU93
 254:Drivers/STM32F4xx_HAL_Driver/Src/stm32f4xx_hal_hcd.c ****   __HAL_UNLOCK(hhcd);
 314              		.loc 1 254 3 discriminator 2 view .LVU94
 254:Drivers/STM32F4xx_HAL_Driver/Src/stm32f4xx_hal_hcd.c ****   __HAL_UNLOCK(hhcd);
 315              		.loc 1 254 9 is_stmt 0 discriminator 2 view .LVU95
 316 0012 0068     		ldr	r0, [r0]
 317              	.LVL23:
 254:Drivers/STM32F4xx_HAL_Driver/Src/stm32f4xx_hal_hcd.c ****   __HAL_UNLOCK(hhcd);
 318              		.loc 1 254 9 discriminator 2 view .LVU96
 319 0014 FFF7FEFF 		bl	USB_HC_Halt
 320              	.LVL24:
 255:Drivers/STM32F4xx_HAL_Driver/Src/stm32f4xx_hal_hcd.c **** 
 321              		.loc 1 255 3 is_stmt 1 discriminator 2 view .LVU97
 255:Drivers/STM32F4xx_HAL_Driver/Src/stm32f4xx_hal_hcd.c **** 
 322              		.loc 1 255 3 discriminator 2 view .LVU98
 323 0018 0020     		movs	r0, #0
 324 001a 84F8B802 		strb	r0, [r4, #696]
 255:Drivers/STM32F4xx_HAL_Driver/Src/stm32f4xx_hal_hcd.c **** 
 325              		.loc 1 255 3 discriminator 2 view .LVU99
 257:Drivers/STM32F4xx_HAL_Driver/Src/stm32f4xx_hal_hcd.c **** }
 326              		.loc 1 257 3 discriminator 2 view .LVU100
 258:Drivers/STM32F4xx_HAL_Driver/Src/stm32f4xx_hal_hcd.c **** 
 327              		.loc 1 258 1 is_stmt 0 discriminator 2 view .LVU101
 328 001e 10BD     		pop	{r4, pc}
 329              	.LVL25:
 330              	.L16:
 331              	.LCFI6:
 332              		.cfi_def_cfa_offset 0
 333              		.cfi_restore 4
 334              		.cfi_restore 14
 253:Drivers/STM32F4xx_HAL_Driver/Src/stm32f4xx_hal_hcd.c ****   (void)USB_HC_Halt(hhcd->Instance, (uint8_t)ch_num);
 335              		.loc 1 253 3 view .LVU102
 336 0020 0220     		movs	r0, #2
 337              	.LVL26:
 258:Drivers/STM32F4xx_HAL_Driver/Src/stm32f4xx_hal_hcd.c **** 
 338              		.loc 1 258 1 view .LVU103
 339 0022 7047     		bx	lr
 340              		.cfi_endproc
 341              	.LFE132:
 343              		.section	.text.HAL_HCD_MspInit,"ax",%progbits
 344              		.align	1
 345              		.weak	HAL_HCD_MspInit
 346              		.syntax unified
 347              		.thumb
 348              		.thumb_func
ARM GAS  /tmp/ccJjbwbP.s 			page 36


 349              		.fpu fpv4-sp-d16
 351              	HAL_HCD_MspInit:
 352              	.LVL27:
 353              	.LFB134:
 301:Drivers/STM32F4xx_HAL_Driver/Src/stm32f4xx_hal_hcd.c ****   /* Prevent unused argument(s) compilation warning */
 354              		.loc 1 301 1 is_stmt 1 view -0
 355              		.cfi_startproc
 356              		@ args = 0, pretend = 0, frame = 0
 357              		@ frame_needed = 0, uses_anonymous_args = 0
 358              		@ link register save eliminated.
 303:Drivers/STM32F4xx_HAL_Driver/Src/stm32f4xx_hal_hcd.c **** 
 359              		.loc 1 303 3 view .LVU105
 308:Drivers/STM32F4xx_HAL_Driver/Src/stm32f4xx_hal_hcd.c **** 
 360              		.loc 1 308 1 is_stmt 0 view .LVU106
 361 0000 7047     		bx	lr
 362              		.cfi_endproc
 363              	.LFE134:
 365              		.section	.text.HAL_HCD_Init,"ax",%progbits
 366              		.align	1
 367              		.global	HAL_HCD_Init
 368              		.syntax unified
 369              		.thumb
 370              		.thumb_func
 371              		.fpu fpv4-sp-d16
 373              	HAL_HCD_Init:
 374              	.LVL28:
 375              	.LFB130:
 112:Drivers/STM32F4xx_HAL_Driver/Src/stm32f4xx_hal_hcd.c ****   USB_OTG_GlobalTypeDef *USBx;
 376              		.loc 1 112 1 is_stmt 1 view -0
 377              		.cfi_startproc
 378              		@ args = 0, pretend = 0, frame = 0
 379              		@ frame_needed = 0, uses_anonymous_args = 0
 113:Drivers/STM32F4xx_HAL_Driver/Src/stm32f4xx_hal_hcd.c **** 
 380              		.loc 1 113 3 view .LVU108
 116:Drivers/STM32F4xx_HAL_Driver/Src/stm32f4xx_hal_hcd.c ****   {
 381              		.loc 1 116 3 view .LVU109
 116:Drivers/STM32F4xx_HAL_Driver/Src/stm32f4xx_hal_hcd.c ****   {
 382              		.loc 1 116 6 is_stmt 0 view .LVU110
 383 0000 0028     		cmp	r0, #0
 384 0002 45D0     		beq	.L26
 112:Drivers/STM32F4xx_HAL_Driver/Src/stm32f4xx_hal_hcd.c ****   USB_OTG_GlobalTypeDef *USBx;
 385              		.loc 1 112 1 view .LVU111
 386 0004 F0B5     		push	{r4, r5, r6, r7, lr}
 387              	.LCFI7:
 388              		.cfi_def_cfa_offset 20
 389              		.cfi_offset 4, -20
 390              		.cfi_offset 5, -16
 391              		.cfi_offset 6, -12
 392              		.cfi_offset 7, -8
 393              		.cfi_offset 14, -4
 394 0006 8BB0     		sub	sp, sp, #44
 395              	.LCFI8:
 396              		.cfi_def_cfa_offset 64
 397 0008 0646     		mov	r6, r0
 122:Drivers/STM32F4xx_HAL_Driver/Src/stm32f4xx_hal_hcd.c **** 
 398              		.loc 1 122 3 is_stmt 1 view .LVU112
 124:Drivers/STM32F4xx_HAL_Driver/Src/stm32f4xx_hal_hcd.c **** 
ARM GAS  /tmp/ccJjbwbP.s 			page 37


 399              		.loc 1 124 3 view .LVU113
 124:Drivers/STM32F4xx_HAL_Driver/Src/stm32f4xx_hal_hcd.c **** 
 400              		.loc 1 124 8 is_stmt 0 view .LVU114
 401 000a 0468     		ldr	r4, [r0]
 402              	.LVL29:
 126:Drivers/STM32F4xx_HAL_Driver/Src/stm32f4xx_hal_hcd.c ****   {
 403              		.loc 1 126 3 is_stmt 1 view .LVU115
 126:Drivers/STM32F4xx_HAL_Driver/Src/stm32f4xx_hal_hcd.c ****   {
 404              		.loc 1 126 11 is_stmt 0 view .LVU116
 405 000c 90F8B932 		ldrb	r3, [r0, #697]	@ zero_extendqisi2
 126:Drivers/STM32F4xx_HAL_Driver/Src/stm32f4xx_hal_hcd.c ****   {
 406              		.loc 1 126 6 view .LVU117
 407 0010 002B     		cmp	r3, #0
 408 0012 38D0     		beq	.L31
 409              	.LVL30:
 410              	.L24:
 152:Drivers/STM32F4xx_HAL_Driver/Src/stm32f4xx_hal_hcd.c **** 
 411              		.loc 1 152 3 is_stmt 1 view .LVU118
 152:Drivers/STM32F4xx_HAL_Driver/Src/stm32f4xx_hal_hcd.c **** 
 412              		.loc 1 152 15 is_stmt 0 view .LVU119
 413 0014 0323     		movs	r3, #3
 414 0016 86F8B932 		strb	r3, [r6, #697]
 155:Drivers/STM32F4xx_HAL_Driver/Src/stm32f4xx_hal_hcd.c ****   {
 415              		.loc 1 155 3 is_stmt 1 view .LVU120
 155:Drivers/STM32F4xx_HAL_Driver/Src/stm32f4xx_hal_hcd.c ****   {
 416              		.loc 1 155 12 is_stmt 0 view .LVU121
 417 001a E36B     		ldr	r3, [r4, #60]
 155:Drivers/STM32F4xx_HAL_Driver/Src/stm32f4xx_hal_hcd.c ****   {
 418              		.loc 1 155 6 view .LVU122
 419 001c 13F4807F 		tst	r3, #256
 420 0020 01D1     		bne	.L25
 157:Drivers/STM32F4xx_HAL_Driver/Src/stm32f4xx_hal_hcd.c ****   }
 421              		.loc 1 157 5 is_stmt 1 view .LVU123
 157:Drivers/STM32F4xx_HAL_Driver/Src/stm32f4xx_hal_hcd.c ****   }
 422              		.loc 1 157 27 is_stmt 0 view .LVU124
 423 0022 0023     		movs	r3, #0
 424 0024 3361     		str	r3, [r6, #16]
 425              	.L25:
 161:Drivers/STM32F4xx_HAL_Driver/Src/stm32f4xx_hal_hcd.c **** 
 426              		.loc 1 161 3 is_stmt 1 view .LVU125
 427 0026 3068     		ldr	r0, [r6]
 428 0028 FFF7FEFF 		bl	USB_DisableGlobalInt
 429              	.LVL31:
 164:Drivers/STM32F4xx_HAL_Driver/Src/stm32f4xx_hal_hcd.c **** 
 430              		.loc 1 164 3 view .LVU126
 164:Drivers/STM32F4xx_HAL_Driver/Src/stm32f4xx_hal_hcd.c **** 
 431              		.loc 1 164 26 is_stmt 0 view .LVU127
 432 002c 3446     		mov	r4, r6
 433              	.LVL32:
 164:Drivers/STM32F4xx_HAL_Driver/Src/stm32f4xx_hal_hcd.c **** 
 434              		.loc 1 164 26 view .LVU128
 435 002e 54F810CB 		ldr	ip, [r4], #16
 164:Drivers/STM32F4xx_HAL_Driver/Src/stm32f4xx_hal_hcd.c **** 
 436              		.loc 1 164 9 view .LVU129
 437 0032 6D46     		mov	r5, sp
 438 0034 0FCC     		ldmia	r4!, {r0, r1, r2, r3}
 439 0036 0FC5     		stmia	r5!, {r0, r1, r2, r3}
ARM GAS  /tmp/ccJjbwbP.s 			page 38


 440 0038 0FCC     		ldmia	r4!, {r0, r1, r2, r3}
 441 003a 0FC5     		stmia	r5!, {r0, r1, r2, r3}
 442 003c 94E80300 		ldm	r4, {r0, r1}
 443 0040 85E80300 		stm	r5, {r0, r1}
 444 0044 371D     		adds	r7, r6, #4
 445 0046 97E80E00 		ldm	r7, {r1, r2, r3}
 446 004a 6046     		mov	r0, ip
 447 004c FFF7FEFF 		bl	USB_CoreInit
 448              	.LVL33:
 167:Drivers/STM32F4xx_HAL_Driver/Src/stm32f4xx_hal_hcd.c **** 
 449              		.loc 1 167 3 is_stmt 1 view .LVU130
 167:Drivers/STM32F4xx_HAL_Driver/Src/stm32f4xx_hal_hcd.c **** 
 450              		.loc 1 167 9 is_stmt 0 view .LVU131
 451 0050 0121     		movs	r1, #1
 452 0052 3068     		ldr	r0, [r6]
 453 0054 FFF7FEFF 		bl	USB_SetCurrentMode
 454              	.LVL34:
 170:Drivers/STM32F4xx_HAL_Driver/Src/stm32f4xx_hal_hcd.c **** 
 455              		.loc 1 170 3 is_stmt 1 view .LVU132
 170:Drivers/STM32F4xx_HAL_Driver/Src/stm32f4xx_hal_hcd.c **** 
 456              		.loc 1 170 26 is_stmt 0 view .LVU133
 457 0058 3446     		mov	r4, r6
 458 005a 54F810CB 		ldr	ip, [r4], #16
 170:Drivers/STM32F4xx_HAL_Driver/Src/stm32f4xx_hal_hcd.c **** 
 459              		.loc 1 170 9 view .LVU134
 460 005e 6D46     		mov	r5, sp
 461 0060 0FCC     		ldmia	r4!, {r0, r1, r2, r3}
 462 0062 0FC5     		stmia	r5!, {r0, r1, r2, r3}
 463 0064 0FCC     		ldmia	r4!, {r0, r1, r2, r3}
 464 0066 0FC5     		stmia	r5!, {r0, r1, r2, r3}
 465 0068 94E80300 		ldm	r4, {r0, r1}
 466 006c 85E80300 		stm	r5, {r0, r1}
 467 0070 97E80E00 		ldm	r7, {r1, r2, r3}
 468 0074 6046     		mov	r0, ip
 469 0076 FFF7FEFF 		bl	USB_HostInit
 470              	.LVL35:
 172:Drivers/STM32F4xx_HAL_Driver/Src/stm32f4xx_hal_hcd.c **** 
 471              		.loc 1 172 3 is_stmt 1 view .LVU135
 172:Drivers/STM32F4xx_HAL_Driver/Src/stm32f4xx_hal_hcd.c **** 
 472              		.loc 1 172 15 is_stmt 0 view .LVU136
 473 007a 0123     		movs	r3, #1
 474 007c 86F8B932 		strb	r3, [r6, #697]
 174:Drivers/STM32F4xx_HAL_Driver/Src/stm32f4xx_hal_hcd.c **** }
 475              		.loc 1 174 3 is_stmt 1 view .LVU137
 174:Drivers/STM32F4xx_HAL_Driver/Src/stm32f4xx_hal_hcd.c **** }
 476              		.loc 1 174 10 is_stmt 0 view .LVU138
 477 0080 0020     		movs	r0, #0
 175:Drivers/STM32F4xx_HAL_Driver/Src/stm32f4xx_hal_hcd.c **** 
 478              		.loc 1 175 1 view .LVU139
 479 0082 0BB0     		add	sp, sp, #44
 480              	.LCFI9:
 481              		.cfi_remember_state
 482              		.cfi_def_cfa_offset 20
 483              		@ sp needed
 484 0084 F0BD     		pop	{r4, r5, r6, r7, pc}
 485              	.LVL36:
 486              	.L31:
ARM GAS  /tmp/ccJjbwbP.s 			page 39


 487              	.LCFI10:
 488              		.cfi_restore_state
 129:Drivers/STM32F4xx_HAL_Driver/Src/stm32f4xx_hal_hcd.c **** 
 489              		.loc 1 129 5 is_stmt 1 view .LVU140
 129:Drivers/STM32F4xx_HAL_Driver/Src/stm32f4xx_hal_hcd.c **** 
 490              		.loc 1 129 16 is_stmt 0 view .LVU141
 491 0086 80F8B832 		strb	r3, [r0, #696]
 148:Drivers/STM32F4xx_HAL_Driver/Src/stm32f4xx_hal_hcd.c **** #endif /* (USE_HAL_HCD_REGISTER_CALLBACKS) */
 492              		.loc 1 148 5 is_stmt 1 view .LVU142
 493 008a FFF7FEFF 		bl	HAL_HCD_MspInit
 494              	.LVL37:
 148:Drivers/STM32F4xx_HAL_Driver/Src/stm32f4xx_hal_hcd.c **** #endif /* (USE_HAL_HCD_REGISTER_CALLBACKS) */
 495              		.loc 1 148 5 is_stmt 0 view .LVU143
 496 008e C1E7     		b	.L24
 497              	.LVL38:
 498              	.L26:
 499              	.LCFI11:
 500              		.cfi_def_cfa_offset 0
 501              		.cfi_restore 4
 502              		.cfi_restore 5
 503              		.cfi_restore 6
 504              		.cfi_restore 7
 505              		.cfi_restore 14
 118:Drivers/STM32F4xx_HAL_Driver/Src/stm32f4xx_hal_hcd.c ****   }
 506              		.loc 1 118 12 view .LVU144
 507 0090 0120     		movs	r0, #1
 508              	.LVL39:
 175:Drivers/STM32F4xx_HAL_Driver/Src/stm32f4xx_hal_hcd.c **** 
 509              		.loc 1 175 1 view .LVU145
 510 0092 7047     		bx	lr
 511              		.cfi_endproc
 512              	.LFE130:
 514              		.section	.text.HAL_HCD_MspDeInit,"ax",%progbits
 515              		.align	1
 516              		.weak	HAL_HCD_MspDeInit
 517              		.syntax unified
 518              		.thumb
 519              		.thumb_func
 520              		.fpu fpv4-sp-d16
 522              	HAL_HCD_MspDeInit:
 523              	.LVL40:
 524              	.LFB135:
 316:Drivers/STM32F4xx_HAL_Driver/Src/stm32f4xx_hal_hcd.c ****   /* Prevent unused argument(s) compilation warning */
 525              		.loc 1 316 1 is_stmt 1 view -0
 526              		.cfi_startproc
 527              		@ args = 0, pretend = 0, frame = 0
 528              		@ frame_needed = 0, uses_anonymous_args = 0
 529              		@ link register save eliminated.
 318:Drivers/STM32F4xx_HAL_Driver/Src/stm32f4xx_hal_hcd.c **** 
 530              		.loc 1 318 3 view .LVU147
 323:Drivers/STM32F4xx_HAL_Driver/Src/stm32f4xx_hal_hcd.c **** 
 531              		.loc 1 323 1 is_stmt 0 view .LVU148
 532 0000 7047     		bx	lr
 533              		.cfi_endproc
 534              	.LFE135:
 536              		.section	.text.HAL_HCD_DeInit,"ax",%progbits
 537              		.align	1
ARM GAS  /tmp/ccJjbwbP.s 			page 40


 538              		.global	HAL_HCD_DeInit
 539              		.syntax unified
 540              		.thumb
 541              		.thumb_func
 542              		.fpu fpv4-sp-d16
 544              	HAL_HCD_DeInit:
 545              	.LVL41:
 546              	.LFB133:
 266:Drivers/STM32F4xx_HAL_Driver/Src/stm32f4xx_hal_hcd.c ****   /* Check the HCD handle allocation */
 547              		.loc 1 266 1 is_stmt 1 view -0
 548              		.cfi_startproc
 549              		@ args = 0, pretend = 0, frame = 0
 550              		@ frame_needed = 0, uses_anonymous_args = 0
 268:Drivers/STM32F4xx_HAL_Driver/Src/stm32f4xx_hal_hcd.c ****   {
 551              		.loc 1 268 3 view .LVU150
 268:Drivers/STM32F4xx_HAL_Driver/Src/stm32f4xx_hal_hcd.c ****   {
 552              		.loc 1 268 6 is_stmt 0 view .LVU151
 553 0000 68B1     		cbz	r0, .L35
 266:Drivers/STM32F4xx_HAL_Driver/Src/stm32f4xx_hal_hcd.c ****   /* Check the HCD handle allocation */
 554              		.loc 1 266 1 view .LVU152
 555 0002 10B5     		push	{r4, lr}
 556              	.LCFI12:
 557              		.cfi_def_cfa_offset 8
 558              		.cfi_offset 4, -8
 559              		.cfi_offset 14, -4
 560 0004 0446     		mov	r4, r0
 273:Drivers/STM32F4xx_HAL_Driver/Src/stm32f4xx_hal_hcd.c **** 
 561              		.loc 1 273 3 is_stmt 1 view .LVU153
 273:Drivers/STM32F4xx_HAL_Driver/Src/stm32f4xx_hal_hcd.c **** 
 562              		.loc 1 273 15 is_stmt 0 view .LVU154
 563 0006 0323     		movs	r3, #3
 564 0008 80F8B932 		strb	r3, [r0, #697]
 285:Drivers/STM32F4xx_HAL_Driver/Src/stm32f4xx_hal_hcd.c **** #endif /* USE_HAL_HCD_REGISTER_CALLBACKS */
 565              		.loc 1 285 3 is_stmt 1 view .LVU155
 566 000c FFF7FEFF 		bl	HAL_HCD_MspDeInit
 567              	.LVL42:
 288:Drivers/STM32F4xx_HAL_Driver/Src/stm32f4xx_hal_hcd.c **** 
 568              		.loc 1 288 3 view .LVU156
 569 0010 2068     		ldr	r0, [r4]
 570 0012 FFF7FEFF 		bl	USB_DisableGlobalInt
 571              	.LVL43:
 290:Drivers/STM32F4xx_HAL_Driver/Src/stm32f4xx_hal_hcd.c **** 
 572              		.loc 1 290 3 view .LVU157
 290:Drivers/STM32F4xx_HAL_Driver/Src/stm32f4xx_hal_hcd.c **** 
 573              		.loc 1 290 15 is_stmt 0 view .LVU158
 574 0016 0020     		movs	r0, #0
 575 0018 84F8B902 		strb	r0, [r4, #697]
 292:Drivers/STM32F4xx_HAL_Driver/Src/stm32f4xx_hal_hcd.c **** }
 576              		.loc 1 292 3 is_stmt 1 view .LVU159
 293:Drivers/STM32F4xx_HAL_Driver/Src/stm32f4xx_hal_hcd.c **** 
 577              		.loc 1 293 1 is_stmt 0 view .LVU160
 578 001c 10BD     		pop	{r4, pc}
 579              	.LVL44:
 580              	.L35:
 581              	.LCFI13:
 582              		.cfi_def_cfa_offset 0
 583              		.cfi_restore 4
ARM GAS  /tmp/ccJjbwbP.s 			page 41


 584              		.cfi_restore 14
 270:Drivers/STM32F4xx_HAL_Driver/Src/stm32f4xx_hal_hcd.c ****   }
 585              		.loc 1 270 12 view .LVU161
 586 001e 0120     		movs	r0, #1
 587              	.LVL45:
 293:Drivers/STM32F4xx_HAL_Driver/Src/stm32f4xx_hal_hcd.c **** 
 588              		.loc 1 293 1 view .LVU162
 589 0020 7047     		bx	lr
 590              		.cfi_endproc
 591              	.LFE133:
 593              		.section	.text.HAL_HCD_HC_SubmitRequest,"ax",%progbits
 594              		.align	1
 595              		.global	HAL_HCD_HC_SubmitRequest
 596              		.syntax unified
 597              		.thumb
 598              		.thumb_func
 599              		.fpu fpv4-sp-d16
 601              	HAL_HCD_HC_SubmitRequest:
 602              	.LVL46:
 603              	.LFB136:
 375:Drivers/STM32F4xx_HAL_Driver/Src/stm32f4xx_hal_hcd.c ****   hhcd->hc[ch_num].ep_is_in = direction;
 604              		.loc 1 375 1 is_stmt 1 view -0
 605              		.cfi_startproc
 606              		@ args = 16, pretend = 0, frame = 0
 607              		@ frame_needed = 0, uses_anonymous_args = 0
 375:Drivers/STM32F4xx_HAL_Driver/Src/stm32f4xx_hal_hcd.c ****   hhcd->hc[ch_num].ep_is_in = direction;
 608              		.loc 1 375 1 is_stmt 0 view .LVU164
 609 0000 F8B5     		push	{r3, r4, r5, r6, r7, lr}
 610              	.LCFI14:
 611              		.cfi_def_cfa_offset 24
 612              		.cfi_offset 3, -24
 613              		.cfi_offset 4, -20
 614              		.cfi_offset 5, -16
 615              		.cfi_offset 6, -12
 616              		.cfi_offset 7, -8
 617              		.cfi_offset 14, -4
 618 0002 9DF81850 		ldrb	r5, [sp, #24]	@ zero_extendqisi2
 619 0006 BDF82060 		ldrh	r6, [sp, #32]
 376:Drivers/STM32F4xx_HAL_Driver/Src/stm32f4xx_hal_hcd.c ****   hhcd->hc[ch_num].ep_type  = ep_type;
 620              		.loc 1 376 3 is_stmt 1 view .LVU165
 376:Drivers/STM32F4xx_HAL_Driver/Src/stm32f4xx_hal_hcd.c ****   hhcd->hc[ch_num].ep_type  = ep_type;
 621              		.loc 1 376 29 is_stmt 0 view .LVU166
 622 000a 01EB8104 		add	r4, r1, r1, lsl #2
 623 000e 00EBC404 		add	r4, r0, r4, lsl #3
 624 0012 84F83B20 		strb	r2, [r4, #59]
 377:Drivers/STM32F4xx_HAL_Driver/Src/stm32f4xx_hal_hcd.c **** 
 625              		.loc 1 377 3 is_stmt 1 view .LVU167
 377:Drivers/STM32F4xx_HAL_Driver/Src/stm32f4xx_hal_hcd.c **** 
 626              		.loc 1 377 29 is_stmt 0 view .LVU168
 627 0016 84F83F30 		strb	r3, [r4, #63]
 379:Drivers/STM32F4xx_HAL_Driver/Src/stm32f4xx_hal_hcd.c ****   {
 628              		.loc 1 379 3 is_stmt 1 view .LVU169
 379:Drivers/STM32F4xx_HAL_Driver/Src/stm32f4xx_hal_hcd.c ****   {
 629              		.loc 1 379 6 is_stmt 0 view .LVU170
 630 001a 8DB9     		cbnz	r5, .L41
 381:Drivers/STM32F4xx_HAL_Driver/Src/stm32f4xx_hal_hcd.c ****     hhcd->hc[ch_num].do_ping = do_ping;
 631              		.loc 1 381 5 is_stmt 1 view .LVU171
ARM GAS  /tmp/ccJjbwbP.s 			page 42


 381:Drivers/STM32F4xx_HAL_Driver/Src/stm32f4xx_hal_hcd.c ****     hhcd->hc[ch_num].do_ping = do_ping;
 632              		.loc 1 381 31 is_stmt 0 view .LVU172
 633 001c 01EB8104 		add	r4, r1, r1, lsl #2
 634 0020 00EBC404 		add	r4, r0, r4, lsl #3
 635 0024 0327     		movs	r7, #3
 636 0026 84F84270 		strb	r7, [r4, #66]
 382:Drivers/STM32F4xx_HAL_Driver/Src/stm32f4xx_hal_hcd.c ****   }
 637              		.loc 1 382 5 is_stmt 1 view .LVU173
 382:Drivers/STM32F4xx_HAL_Driver/Src/stm32f4xx_hal_hcd.c ****   }
 638              		.loc 1 382 30 is_stmt 0 view .LVU174
 639 002a 9DF82470 		ldrb	r7, [sp, #36]	@ zero_extendqisi2
 640 002e 84F83D70 		strb	r7, [r4, #61]
 641              	.L42:
 390:Drivers/STM32F4xx_HAL_Driver/Src/stm32f4xx_hal_hcd.c ****   {
 642              		.loc 1 390 3 is_stmt 1 view .LVU175
 643 0032 032B     		cmp	r3, #3
 644 0034 00F29480 		bhi	.L43
 645 0038 DFE803F0 		tbb	[pc, r3]
 646              	.L45:
 647 003c 0A       		.byte	(.L48-.L45)/2
 648 003d 8B       		.byte	(.L47-.L45)/2
 649 003e 2F       		.byte	(.L46-.L45)/2
 650 003f 5D       		.byte	(.L44-.L45)/2
 651              		.p2align 1
 652              	.L41:
 386:Drivers/STM32F4xx_HAL_Driver/Src/stm32f4xx_hal_hcd.c ****   }
 653              		.loc 1 386 5 view .LVU176
 386:Drivers/STM32F4xx_HAL_Driver/Src/stm32f4xx_hal_hcd.c ****   }
 654              		.loc 1 386 31 is_stmt 0 view .LVU177
 655 0040 01EB8104 		add	r4, r1, r1, lsl #2
 656 0044 00EBC404 		add	r4, r0, r4, lsl #3
 657 0048 0227     		movs	r7, #2
 658 004a 84F84270 		strb	r7, [r4, #66]
 659 004e F0E7     		b	.L42
 660              	.L48:
 393:Drivers/STM32F4xx_HAL_Driver/Src/stm32f4xx_hal_hcd.c ****       {
 661              		.loc 1 393 7 is_stmt 1 view .LVU178
 393:Drivers/STM32F4xx_HAL_Driver/Src/stm32f4xx_hal_hcd.c ****       {
 662              		.loc 1 393 10 is_stmt 0 view .LVU179
 663 0050 012D     		cmp	r5, #1
 664 0052 40F08580 		bne	.L43
 393:Drivers/STM32F4xx_HAL_Driver/Src/stm32f4xx_hal_hcd.c ****       {
 665              		.loc 1 393 25 discriminator 1 view .LVU180
 666 0056 002A     		cmp	r2, #0
 667 0058 40F08280 		bne	.L43
 395:Drivers/STM32F4xx_HAL_Driver/Src/stm32f4xx_hal_hcd.c ****         {
 668              		.loc 1 395 9 is_stmt 1 view .LVU181
 395:Drivers/STM32F4xx_HAL_Driver/Src/stm32f4xx_hal_hcd.c ****         {
 669              		.loc 1 395 12 is_stmt 0 view .LVU182
 670 005c 36B9     		cbnz	r6, .L49
 398:Drivers/STM32F4xx_HAL_Driver/Src/stm32f4xx_hal_hcd.c ****         }
 671              		.loc 1 398 11 is_stmt 1 view .LVU183
 398:Drivers/STM32F4xx_HAL_Driver/Src/stm32f4xx_hal_hcd.c ****         }
 672              		.loc 1 398 39 is_stmt 0 view .LVU184
 673 005e 01EB8103 		add	r3, r1, r1, lsl #2
 674              	.LVL47:
 398:Drivers/STM32F4xx_HAL_Driver/Src/stm32f4xx_hal_hcd.c ****         }
ARM GAS  /tmp/ccJjbwbP.s 			page 43


 675              		.loc 1 398 39 view .LVU185
 676 0062 00EBC303 		add	r3, r0, r3, lsl #3
 677 0066 0122     		movs	r2, #1
 678              	.LVL48:
 398:Drivers/STM32F4xx_HAL_Driver/Src/stm32f4xx_hal_hcd.c ****         }
 679              		.loc 1 398 39 view .LVU186
 680 0068 83F85120 		strb	r2, [r3, #81]
 681              	.L49:
 402:Drivers/STM32F4xx_HAL_Driver/Src/stm32f4xx_hal_hcd.c ****         {
 682              		.loc 1 402 9 is_stmt 1 view .LVU187
 402:Drivers/STM32F4xx_HAL_Driver/Src/stm32f4xx_hal_hcd.c ****         {
 683              		.loc 1 402 29 is_stmt 0 view .LVU188
 684 006c 01EB8103 		add	r3, r1, r1, lsl #2
 685 0070 00EBC303 		add	r3, r0, r3, lsl #3
 686 0074 93F85130 		ldrb	r3, [r3, #81]	@ zero_extendqisi2
 402:Drivers/STM32F4xx_HAL_Driver/Src/stm32f4xx_hal_hcd.c ****         {
 687              		.loc 1 402 12 view .LVU189
 688 0078 3BB9     		cbnz	r3, .L50
 405:Drivers/STM32F4xx_HAL_Driver/Src/stm32f4xx_hal_hcd.c ****         }
 689              		.loc 1 405 11 is_stmt 1 view .LVU190
 405:Drivers/STM32F4xx_HAL_Driver/Src/stm32f4xx_hal_hcd.c ****         }
 690              		.loc 1 405 37 is_stmt 0 view .LVU191
 691 007a 01EB8103 		add	r3, r1, r1, lsl #2
 692 007e 00EBC303 		add	r3, r0, r3, lsl #3
 693 0082 0022     		movs	r2, #0
 694 0084 83F84220 		strb	r2, [r3, #66]
 695 0088 6AE0     		b	.L43
 696              	.L50:
 410:Drivers/STM32F4xx_HAL_Driver/Src/stm32f4xx_hal_hcd.c ****         }
 697              		.loc 1 410 11 is_stmt 1 view .LVU192
 410:Drivers/STM32F4xx_HAL_Driver/Src/stm32f4xx_hal_hcd.c ****         }
 698              		.loc 1 410 37 is_stmt 0 view .LVU193
 699 008a 01EB8103 		add	r3, r1, r1, lsl #2
 700 008e 00EBC303 		add	r3, r0, r3, lsl #3
 701 0092 0222     		movs	r2, #2
 702 0094 83F84220 		strb	r2, [r3, #66]
 703 0098 62E0     		b	.L43
 704              	.LVL49:
 705              	.L46:
 416:Drivers/STM32F4xx_HAL_Driver/Src/stm32f4xx_hal_hcd.c ****       {
 706              		.loc 1 416 7 is_stmt 1 view .LVU194
 416:Drivers/STM32F4xx_HAL_Driver/Src/stm32f4xx_hal_hcd.c ****       {
 707              		.loc 1 416 10 is_stmt 0 view .LVU195
 708 009a AAB9     		cbnz	r2, .L51
 419:Drivers/STM32F4xx_HAL_Driver/Src/stm32f4xx_hal_hcd.c ****         {
 709              		.loc 1 419 9 is_stmt 1 view .LVU196
 419:Drivers/STM32F4xx_HAL_Driver/Src/stm32f4xx_hal_hcd.c ****         {
 710              		.loc 1 419 29 is_stmt 0 view .LVU197
 711 009c 01EB8103 		add	r3, r1, r1, lsl #2
 712              	.LVL50:
 419:Drivers/STM32F4xx_HAL_Driver/Src/stm32f4xx_hal_hcd.c ****         {
 713              		.loc 1 419 29 view .LVU198
 714 00a0 00EBC303 		add	r3, r0, r3, lsl #3
 715 00a4 93F85130 		ldrb	r3, [r3, #81]	@ zero_extendqisi2
 419:Drivers/STM32F4xx_HAL_Driver/Src/stm32f4xx_hal_hcd.c ****         {
 716              		.loc 1 419 12 view .LVU199
 717 00a8 33B9     		cbnz	r3, .L52
ARM GAS  /tmp/ccJjbwbP.s 			page 44


 422:Drivers/STM32F4xx_HAL_Driver/Src/stm32f4xx_hal_hcd.c ****         }
 718              		.loc 1 422 11 is_stmt 1 view .LVU200
 422:Drivers/STM32F4xx_HAL_Driver/Src/stm32f4xx_hal_hcd.c ****         }
 719              		.loc 1 422 37 is_stmt 0 view .LVU201
 720 00aa 01EB8103 		add	r3, r1, r1, lsl #2
 721 00ae 00EBC303 		add	r3, r0, r3, lsl #3
 722 00b2 83F84220 		strb	r2, [r3, #66]
 723 00b6 53E0     		b	.L43
 724              	.L52:
 427:Drivers/STM32F4xx_HAL_Driver/Src/stm32f4xx_hal_hcd.c ****         }
 725              		.loc 1 427 11 is_stmt 1 view .LVU202
 427:Drivers/STM32F4xx_HAL_Driver/Src/stm32f4xx_hal_hcd.c ****         }
 726              		.loc 1 427 37 is_stmt 0 view .LVU203
 727 00b8 01EB8103 		add	r3, r1, r1, lsl #2
 728 00bc 00EBC303 		add	r3, r0, r3, lsl #3
 729 00c0 0222     		movs	r2, #2
 730              	.LVL51:
 427:Drivers/STM32F4xx_HAL_Driver/Src/stm32f4xx_hal_hcd.c ****         }
 731              		.loc 1 427 37 view .LVU204
 732 00c2 83F84220 		strb	r2, [r3, #66]
 733 00c6 4BE0     		b	.L43
 734              	.LVL52:
 735              	.L51:
 432:Drivers/STM32F4xx_HAL_Driver/Src/stm32f4xx_hal_hcd.c ****         {
 736              		.loc 1 432 9 is_stmt 1 view .LVU205
 432:Drivers/STM32F4xx_HAL_Driver/Src/stm32f4xx_hal_hcd.c ****         {
 737              		.loc 1 432 29 is_stmt 0 view .LVU206
 738 00c8 01EB8103 		add	r3, r1, r1, lsl #2
 739              	.LVL53:
 432:Drivers/STM32F4xx_HAL_Driver/Src/stm32f4xx_hal_hcd.c ****         {
 740              		.loc 1 432 29 view .LVU207
 741 00cc 00EBC303 		add	r3, r0, r3, lsl #3
 742 00d0 93F85030 		ldrb	r3, [r3, #80]	@ zero_extendqisi2
 432:Drivers/STM32F4xx_HAL_Driver/Src/stm32f4xx_hal_hcd.c ****         {
 743              		.loc 1 432 12 view .LVU208
 744 00d4 3BB9     		cbnz	r3, .L53
 434:Drivers/STM32F4xx_HAL_Driver/Src/stm32f4xx_hal_hcd.c ****         }
 745              		.loc 1 434 11 is_stmt 1 view .LVU209
 434:Drivers/STM32F4xx_HAL_Driver/Src/stm32f4xx_hal_hcd.c ****         }
 746              		.loc 1 434 37 is_stmt 0 view .LVU210
 747 00d6 01EB8103 		add	r3, r1, r1, lsl #2
 748 00da 00EBC303 		add	r3, r0, r3, lsl #3
 749 00de 0022     		movs	r2, #0
 750              	.LVL54:
 434:Drivers/STM32F4xx_HAL_Driver/Src/stm32f4xx_hal_hcd.c ****         }
 751              		.loc 1 434 37 view .LVU211
 752 00e0 83F84220 		strb	r2, [r3, #66]
 753 00e4 3CE0     		b	.L43
 754              	.LVL55:
 755              	.L53:
 438:Drivers/STM32F4xx_HAL_Driver/Src/stm32f4xx_hal_hcd.c ****         }
 756              		.loc 1 438 11 is_stmt 1 view .LVU212
 438:Drivers/STM32F4xx_HAL_Driver/Src/stm32f4xx_hal_hcd.c ****         }
 757              		.loc 1 438 37 is_stmt 0 view .LVU213
 758 00e6 01EB8103 		add	r3, r1, r1, lsl #2
 759 00ea 00EBC303 		add	r3, r0, r3, lsl #3
 760 00ee 0222     		movs	r2, #2
ARM GAS  /tmp/ccJjbwbP.s 			page 45


 761              	.LVL56:
 438:Drivers/STM32F4xx_HAL_Driver/Src/stm32f4xx_hal_hcd.c ****         }
 762              		.loc 1 438 37 view .LVU214
 763 00f0 83F84220 		strb	r2, [r3, #66]
 764 00f4 34E0     		b	.L43
 765              	.LVL57:
 766              	.L44:
 444:Drivers/STM32F4xx_HAL_Driver/Src/stm32f4xx_hal_hcd.c ****       {
 767              		.loc 1 444 7 is_stmt 1 view .LVU215
 444:Drivers/STM32F4xx_HAL_Driver/Src/stm32f4xx_hal_hcd.c ****       {
 768              		.loc 1 444 10 is_stmt 0 view .LVU216
 769 00f6 AAB9     		cbnz	r2, .L54
 447:Drivers/STM32F4xx_HAL_Driver/Src/stm32f4xx_hal_hcd.c ****         {
 770              		.loc 1 447 9 is_stmt 1 view .LVU217
 447:Drivers/STM32F4xx_HAL_Driver/Src/stm32f4xx_hal_hcd.c ****         {
 771              		.loc 1 447 29 is_stmt 0 view .LVU218
 772 00f8 01EB8103 		add	r3, r1, r1, lsl #2
 773              	.LVL58:
 447:Drivers/STM32F4xx_HAL_Driver/Src/stm32f4xx_hal_hcd.c ****         {
 774              		.loc 1 447 29 view .LVU219
 775 00fc 00EBC303 		add	r3, r0, r3, lsl #3
 776 0100 93F85130 		ldrb	r3, [r3, #81]	@ zero_extendqisi2
 447:Drivers/STM32F4xx_HAL_Driver/Src/stm32f4xx_hal_hcd.c ****         {
 777              		.loc 1 447 12 view .LVU220
 778 0104 33B9     		cbnz	r3, .L55
 450:Drivers/STM32F4xx_HAL_Driver/Src/stm32f4xx_hal_hcd.c ****         }
 779              		.loc 1 450 11 is_stmt 1 view .LVU221
 450:Drivers/STM32F4xx_HAL_Driver/Src/stm32f4xx_hal_hcd.c ****         }
 780              		.loc 1 450 37 is_stmt 0 view .LVU222
 781 0106 01EB8103 		add	r3, r1, r1, lsl #2
 782 010a 00EBC303 		add	r3, r0, r3, lsl #3
 783 010e 83F84220 		strb	r2, [r3, #66]
 784 0112 25E0     		b	.L43
 785              	.L55:
 455:Drivers/STM32F4xx_HAL_Driver/Src/stm32f4xx_hal_hcd.c ****         }
 786              		.loc 1 455 11 is_stmt 1 view .LVU223
 455:Drivers/STM32F4xx_HAL_Driver/Src/stm32f4xx_hal_hcd.c ****         }
 787              		.loc 1 455 37 is_stmt 0 view .LVU224
 788 0114 01EB8103 		add	r3, r1, r1, lsl #2
 789 0118 00EBC303 		add	r3, r0, r3, lsl #3
 790 011c 0222     		movs	r2, #2
 791              	.LVL59:
 455:Drivers/STM32F4xx_HAL_Driver/Src/stm32f4xx_hal_hcd.c ****         }
 792              		.loc 1 455 37 view .LVU225
 793 011e 83F84220 		strb	r2, [r3, #66]
 794 0122 1DE0     		b	.L43
 795              	.LVL60:
 796              	.L54:
 460:Drivers/STM32F4xx_HAL_Driver/Src/stm32f4xx_hal_hcd.c ****         {
 797              		.loc 1 460 9 is_stmt 1 view .LVU226
 460:Drivers/STM32F4xx_HAL_Driver/Src/stm32f4xx_hal_hcd.c ****         {
 798              		.loc 1 460 29 is_stmt 0 view .LVU227
 799 0124 01EB8103 		add	r3, r1, r1, lsl #2
 800              	.LVL61:
 460:Drivers/STM32F4xx_HAL_Driver/Src/stm32f4xx_hal_hcd.c ****         {
 801              		.loc 1 460 29 view .LVU228
 802 0128 00EBC303 		add	r3, r0, r3, lsl #3
ARM GAS  /tmp/ccJjbwbP.s 			page 46


 803 012c 93F85030 		ldrb	r3, [r3, #80]	@ zero_extendqisi2
 460:Drivers/STM32F4xx_HAL_Driver/Src/stm32f4xx_hal_hcd.c ****         {
 804              		.loc 1 460 12 view .LVU229
 805 0130 3BB9     		cbnz	r3, .L56
 462:Drivers/STM32F4xx_HAL_Driver/Src/stm32f4xx_hal_hcd.c ****         }
 806              		.loc 1 462 11 is_stmt 1 view .LVU230
 462:Drivers/STM32F4xx_HAL_Driver/Src/stm32f4xx_hal_hcd.c ****         }
 807              		.loc 1 462 37 is_stmt 0 view .LVU231
 808 0132 01EB8103 		add	r3, r1, r1, lsl #2
 809 0136 00EBC303 		add	r3, r0, r3, lsl #3
 810 013a 0022     		movs	r2, #0
 811              	.LVL62:
 462:Drivers/STM32F4xx_HAL_Driver/Src/stm32f4xx_hal_hcd.c ****         }
 812              		.loc 1 462 37 view .LVU232
 813 013c 83F84220 		strb	r2, [r3, #66]
 814 0140 0EE0     		b	.L43
 815              	.LVL63:
 816              	.L56:
 466:Drivers/STM32F4xx_HAL_Driver/Src/stm32f4xx_hal_hcd.c ****         }
 817              		.loc 1 466 11 is_stmt 1 view .LVU233
 466:Drivers/STM32F4xx_HAL_Driver/Src/stm32f4xx_hal_hcd.c ****         }
 818              		.loc 1 466 37 is_stmt 0 view .LVU234
 819 0142 01EB8103 		add	r3, r1, r1, lsl #2
 820 0146 00EBC303 		add	r3, r0, r3, lsl #3
 821 014a 0222     		movs	r2, #2
 822              	.LVL64:
 466:Drivers/STM32F4xx_HAL_Driver/Src/stm32f4xx_hal_hcd.c ****         }
 823              		.loc 1 466 37 view .LVU235
 824 014c 83F84220 		strb	r2, [r3, #66]
 825 0150 06E0     		b	.L43
 826              	.LVL65:
 827              	.L47:
 472:Drivers/STM32F4xx_HAL_Driver/Src/stm32f4xx_hal_hcd.c ****       break;
 828              		.loc 1 472 7 is_stmt 1 view .LVU236
 472:Drivers/STM32F4xx_HAL_Driver/Src/stm32f4xx_hal_hcd.c ****       break;
 829              		.loc 1 472 33 is_stmt 0 view .LVU237
 830 0152 01EB8103 		add	r3, r1, r1, lsl #2
 831              	.LVL66:
 472:Drivers/STM32F4xx_HAL_Driver/Src/stm32f4xx_hal_hcd.c ****       break;
 832              		.loc 1 472 33 view .LVU238
 833 0156 00EBC303 		add	r3, r0, r3, lsl #3
 834 015a 0022     		movs	r2, #0
 835              	.LVL67:
 472:Drivers/STM32F4xx_HAL_Driver/Src/stm32f4xx_hal_hcd.c ****       break;
 836              		.loc 1 472 33 view .LVU239
 837 015c 83F84220 		strb	r2, [r3, #66]
 473:Drivers/STM32F4xx_HAL_Driver/Src/stm32f4xx_hal_hcd.c **** 
 838              		.loc 1 473 7 is_stmt 1 view .LVU240
 839              	.L43:
 479:Drivers/STM32F4xx_HAL_Driver/Src/stm32f4xx_hal_hcd.c ****   hhcd->hc[ch_num].xfer_len  = length;
 840              		.loc 1 479 3 view .LVU241
 479:Drivers/STM32F4xx_HAL_Driver/Src/stm32f4xx_hal_hcd.c ****   hhcd->hc[ch_num].xfer_len  = length;
 841              		.loc 1 479 30 is_stmt 0 view .LVU242
 842 0160 01EB8103 		add	r3, r1, r1, lsl #2
 843 0164 00EBC303 		add	r3, r0, r3, lsl #3
 844 0168 079A     		ldr	r2, [sp, #28]
 845 016a 5A64     		str	r2, [r3, #68]
ARM GAS  /tmp/ccJjbwbP.s 			page 47


 480:Drivers/STM32F4xx_HAL_Driver/Src/stm32f4xx_hal_hcd.c ****   hhcd->hc[ch_num].urb_state = URB_IDLE;
 846              		.loc 1 480 3 is_stmt 1 view .LVU243
 480:Drivers/STM32F4xx_HAL_Driver/Src/stm32f4xx_hal_hcd.c ****   hhcd->hc[ch_num].urb_state = URB_IDLE;
 847              		.loc 1 480 30 is_stmt 0 view .LVU244
 848 016c 9E64     		str	r6, [r3, #72]
 481:Drivers/STM32F4xx_HAL_Driver/Src/stm32f4xx_hal_hcd.c ****   hhcd->hc[ch_num].xfer_count = 0U;
 849              		.loc 1 481 3 is_stmt 1 view .LVU245
 481:Drivers/STM32F4xx_HAL_Driver/Src/stm32f4xx_hal_hcd.c ****   hhcd->hc[ch_num].xfer_count = 0U;
 850              		.loc 1 481 30 is_stmt 0 view .LVU246
 851 016e 0022     		movs	r2, #0
 852 0170 83F85C20 		strb	r2, [r3, #92]
 482:Drivers/STM32F4xx_HAL_Driver/Src/stm32f4xx_hal_hcd.c ****   hhcd->hc[ch_num].ch_num = ch_num;
 853              		.loc 1 482 3 is_stmt 1 view .LVU247
 482:Drivers/STM32F4xx_HAL_Driver/Src/stm32f4xx_hal_hcd.c ****   hhcd->hc[ch_num].ch_num = ch_num;
 854              		.loc 1 482 31 is_stmt 0 view .LVU248
 855 0174 DA64     		str	r2, [r3, #76]
 483:Drivers/STM32F4xx_HAL_Driver/Src/stm32f4xx_hal_hcd.c ****   hhcd->hc[ch_num].state = HC_IDLE;
 856              		.loc 1 483 3 is_stmt 1 view .LVU249
 483:Drivers/STM32F4xx_HAL_Driver/Src/stm32f4xx_hal_hcd.c ****   hhcd->hc[ch_num].state = HC_IDLE;
 857              		.loc 1 483 27 is_stmt 0 view .LVU250
 858 0176 83F83910 		strb	r1, [r3, #57]
 484:Drivers/STM32F4xx_HAL_Driver/Src/stm32f4xx_hal_hcd.c **** 
 859              		.loc 1 484 3 is_stmt 1 view .LVU251
 484:Drivers/STM32F4xx_HAL_Driver/Src/stm32f4xx_hal_hcd.c **** 
 860              		.loc 1 484 26 is_stmt 0 view .LVU252
 861 017a 83F85D20 		strb	r2, [r3, #93]
 486:Drivers/STM32F4xx_HAL_Driver/Src/stm32f4xx_hal_hcd.c **** }
 862              		.loc 1 486 3 is_stmt 1 view .LVU253
 486:Drivers/STM32F4xx_HAL_Driver/Src/stm32f4xx_hal_hcd.c **** }
 863              		.loc 1 486 43 is_stmt 0 view .LVU254
 864 017e 01EB8101 		add	r1, r1, r1, lsl #2
 865              	.LVL68:
 486:Drivers/STM32F4xx_HAL_Driver/Src/stm32f4xx_hal_hcd.c **** }
 866              		.loc 1 486 43 view .LVU255
 867 0182 C900     		lsls	r1, r1, #3
 868 0184 3831     		adds	r1, r1, #56
 486:Drivers/STM32F4xx_HAL_Driver/Src/stm32f4xx_hal_hcd.c **** }
 869              		.loc 1 486 10 view .LVU256
 870 0186 027C     		ldrb	r2, [r0, #16]	@ zero_extendqisi2
 871 0188 0144     		add	r1, r1, r0
 872 018a 0068     		ldr	r0, [r0]
 873              	.LVL69:
 486:Drivers/STM32F4xx_HAL_Driver/Src/stm32f4xx_hal_hcd.c **** }
 874              		.loc 1 486 10 view .LVU257
 875 018c FFF7FEFF 		bl	USB_HC_StartXfer
 876              	.LVL70:
 487:Drivers/STM32F4xx_HAL_Driver/Src/stm32f4xx_hal_hcd.c **** 
 877              		.loc 1 487 1 view .LVU258
 878 0190 F8BD     		pop	{r3, r4, r5, r6, r7, pc}
 487:Drivers/STM32F4xx_HAL_Driver/Src/stm32f4xx_hal_hcd.c **** 
 879              		.loc 1 487 1 view .LVU259
 880              		.cfi_endproc
 881              	.LFE136:
 883              		.section	.text.HAL_HCD_WKUP_IRQHandler,"ax",%progbits
 884              		.align	1
 885              		.global	HAL_HCD_WKUP_IRQHandler
 886              		.syntax unified
ARM GAS  /tmp/ccJjbwbP.s 			page 48


 887              		.thumb
 888              		.thumb_func
 889              		.fpu fpv4-sp-d16
 891              	HAL_HCD_WKUP_IRQHandler:
 892              	.LVL71:
 893              	.LFB138:
 609:Drivers/STM32F4xx_HAL_Driver/Src/stm32f4xx_hal_hcd.c ****   UNUSED(hhcd);
 894              		.loc 1 609 1 is_stmt 1 view -0
 895              		.cfi_startproc
 896              		@ args = 0, pretend = 0, frame = 0
 897              		@ frame_needed = 0, uses_anonymous_args = 0
 898              		@ link register save eliminated.
 610:Drivers/STM32F4xx_HAL_Driver/Src/stm32f4xx_hal_hcd.c **** }
 899              		.loc 1 610 3 view .LVU261
 611:Drivers/STM32F4xx_HAL_Driver/Src/stm32f4xx_hal_hcd.c **** 
 900              		.loc 1 611 1 is_stmt 0 view .LVU262
 901 0000 7047     		bx	lr
 902              		.cfi_endproc
 903              	.LFE138:
 905              		.section	.text.HAL_HCD_SOF_Callback,"ax",%progbits
 906              		.align	1
 907              		.weak	HAL_HCD_SOF_Callback
 908              		.syntax unified
 909              		.thumb
 910              		.thumb_func
 911              		.fpu fpv4-sp-d16
 913              	HAL_HCD_SOF_Callback:
 914              	.LVL72:
 915              	.LFB139:
 620:Drivers/STM32F4xx_HAL_Driver/Src/stm32f4xx_hal_hcd.c ****   /* Prevent unused argument(s) compilation warning */
 916              		.loc 1 620 1 is_stmt 1 view -0
 917              		.cfi_startproc
 918              		@ args = 0, pretend = 0, frame = 0
 919              		@ frame_needed = 0, uses_anonymous_args = 0
 920              		@ link register save eliminated.
 622:Drivers/STM32F4xx_HAL_Driver/Src/stm32f4xx_hal_hcd.c **** 
 921              		.loc 1 622 3 view .LVU264
 627:Drivers/STM32F4xx_HAL_Driver/Src/stm32f4xx_hal_hcd.c **** 
 922              		.loc 1 627 1 is_stmt 0 view .LVU265
 923 0000 7047     		bx	lr
 924              		.cfi_endproc
 925              	.LFE139:
 927              		.section	.text.HAL_HCD_Connect_Callback,"ax",%progbits
 928              		.align	1
 929              		.weak	HAL_HCD_Connect_Callback
 930              		.syntax unified
 931              		.thumb
 932              		.thumb_func
 933              		.fpu fpv4-sp-d16
 935              	HAL_HCD_Connect_Callback:
 936              	.LVL73:
 937              	.LFB140:
 635:Drivers/STM32F4xx_HAL_Driver/Src/stm32f4xx_hal_hcd.c ****   /* Prevent unused argument(s) compilation warning */
 938              		.loc 1 635 1 is_stmt 1 view -0
 939              		.cfi_startproc
 940              		@ args = 0, pretend = 0, frame = 0
 941              		@ frame_needed = 0, uses_anonymous_args = 0
ARM GAS  /tmp/ccJjbwbP.s 			page 49


 942              		@ link register save eliminated.
 637:Drivers/STM32F4xx_HAL_Driver/Src/stm32f4xx_hal_hcd.c **** 
 943              		.loc 1 637 3 view .LVU267
 642:Drivers/STM32F4xx_HAL_Driver/Src/stm32f4xx_hal_hcd.c **** 
 944              		.loc 1 642 1 is_stmt 0 view .LVU268
 945 0000 7047     		bx	lr
 946              		.cfi_endproc
 947              	.LFE140:
 949              		.section	.text.HAL_HCD_Disconnect_Callback,"ax",%progbits
 950              		.align	1
 951              		.weak	HAL_HCD_Disconnect_Callback
 952              		.syntax unified
 953              		.thumb
 954              		.thumb_func
 955              		.fpu fpv4-sp-d16
 957              	HAL_HCD_Disconnect_Callback:
 958              	.LVL74:
 959              	.LFB141:
 650:Drivers/STM32F4xx_HAL_Driver/Src/stm32f4xx_hal_hcd.c ****   /* Prevent unused argument(s) compilation warning */
 960              		.loc 1 650 1 is_stmt 1 view -0
 961              		.cfi_startproc
 962              		@ args = 0, pretend = 0, frame = 0
 963              		@ frame_needed = 0, uses_anonymous_args = 0
 964              		@ link register save eliminated.
 652:Drivers/STM32F4xx_HAL_Driver/Src/stm32f4xx_hal_hcd.c **** 
 965              		.loc 1 652 3 view .LVU270
 657:Drivers/STM32F4xx_HAL_Driver/Src/stm32f4xx_hal_hcd.c **** 
 966              		.loc 1 657 1 is_stmt 0 view .LVU271
 967 0000 7047     		bx	lr
 968              		.cfi_endproc
 969              	.LFE141:
 971              		.section	.text.HAL_HCD_PortEnabled_Callback,"ax",%progbits
 972              		.align	1
 973              		.weak	HAL_HCD_PortEnabled_Callback
 974              		.syntax unified
 975              		.thumb
 976              		.thumb_func
 977              		.fpu fpv4-sp-d16
 979              	HAL_HCD_PortEnabled_Callback:
 980              	.LVL75:
 981              	.LFB142:
 665:Drivers/STM32F4xx_HAL_Driver/Src/stm32f4xx_hal_hcd.c ****   /* Prevent unused argument(s) compilation warning */
 982              		.loc 1 665 1 is_stmt 1 view -0
 983              		.cfi_startproc
 984              		@ args = 0, pretend = 0, frame = 0
 985              		@ frame_needed = 0, uses_anonymous_args = 0
 986              		@ link register save eliminated.
 667:Drivers/STM32F4xx_HAL_Driver/Src/stm32f4xx_hal_hcd.c **** 
 987              		.loc 1 667 3 view .LVU273
 672:Drivers/STM32F4xx_HAL_Driver/Src/stm32f4xx_hal_hcd.c **** 
 988              		.loc 1 672 1 is_stmt 0 view .LVU274
 989 0000 7047     		bx	lr
 990              		.cfi_endproc
 991              	.LFE142:
 993              		.section	.text.HAL_HCD_PortDisabled_Callback,"ax",%progbits
 994              		.align	1
 995              		.weak	HAL_HCD_PortDisabled_Callback
ARM GAS  /tmp/ccJjbwbP.s 			page 50


 996              		.syntax unified
 997              		.thumb
 998              		.thumb_func
 999              		.fpu fpv4-sp-d16
 1001              	HAL_HCD_PortDisabled_Callback:
 1002              	.LVL76:
 1003              	.LFB143:
 680:Drivers/STM32F4xx_HAL_Driver/Src/stm32f4xx_hal_hcd.c ****   /* Prevent unused argument(s) compilation warning */
 1004              		.loc 1 680 1 is_stmt 1 view -0
 1005              		.cfi_startproc
 1006              		@ args = 0, pretend = 0, frame = 0
 1007              		@ frame_needed = 0, uses_anonymous_args = 0
 1008              		@ link register save eliminated.
 682:Drivers/STM32F4xx_HAL_Driver/Src/stm32f4xx_hal_hcd.c **** 
 1009              		.loc 1 682 3 view .LVU276
 687:Drivers/STM32F4xx_HAL_Driver/Src/stm32f4xx_hal_hcd.c **** 
 1010              		.loc 1 687 1 is_stmt 0 view .LVU277
 1011 0000 7047     		bx	lr
 1012              		.cfi_endproc
 1013              	.LFE143:
 1015              		.section	.text.HCD_Port_IRQHandler,"ax",%progbits
 1016              		.align	1
 1017              		.syntax unified
 1018              		.thumb
 1019              		.thumb_func
 1020              		.fpu fpv4-sp-d16
 1022              	HCD_Port_IRQHandler:
 1023              	.LVL77:
 1024              	.LFB157:
1572:Drivers/STM32F4xx_HAL_Driver/Src/stm32f4xx_hal_hcd.c **** 
1573:Drivers/STM32F4xx_HAL_Driver/Src/stm32f4xx_hal_hcd.c **** /**
1574:Drivers/STM32F4xx_HAL_Driver/Src/stm32f4xx_hal_hcd.c ****   * @brief  Handle Host Port interrupt requests.
1575:Drivers/STM32F4xx_HAL_Driver/Src/stm32f4xx_hal_hcd.c ****   * @param  hhcd HCD handle
1576:Drivers/STM32F4xx_HAL_Driver/Src/stm32f4xx_hal_hcd.c ****   * @retval None
1577:Drivers/STM32F4xx_HAL_Driver/Src/stm32f4xx_hal_hcd.c ****   */
1578:Drivers/STM32F4xx_HAL_Driver/Src/stm32f4xx_hal_hcd.c **** static void HCD_Port_IRQHandler(HCD_HandleTypeDef *hhcd)
1579:Drivers/STM32F4xx_HAL_Driver/Src/stm32f4xx_hal_hcd.c **** {
 1025              		.loc 1 1579 1 is_stmt 1 view -0
 1026              		.cfi_startproc
 1027              		@ args = 0, pretend = 0, frame = 8
 1028              		@ frame_needed = 0, uses_anonymous_args = 0
 1029              		.loc 1 1579 1 is_stmt 0 view .LVU279
 1030 0000 30B5     		push	{r4, r5, lr}
 1031              	.LCFI15:
 1032              		.cfi_def_cfa_offset 12
 1033              		.cfi_offset 4, -12
 1034              		.cfi_offset 5, -8
 1035              		.cfi_offset 14, -4
 1036 0002 83B0     		sub	sp, sp, #12
 1037              	.LCFI16:
 1038              		.cfi_def_cfa_offset 24
 1039 0004 0446     		mov	r4, r0
1580:Drivers/STM32F4xx_HAL_Driver/Src/stm32f4xx_hal_hcd.c ****   USB_OTG_GlobalTypeDef *USBx = hhcd->Instance;
 1040              		.loc 1 1580 3 is_stmt 1 view .LVU280
 1041              		.loc 1 1580 26 is_stmt 0 view .LVU281
 1042 0006 0568     		ldr	r5, [r0]
1581:Drivers/STM32F4xx_HAL_Driver/Src/stm32f4xx_hal_hcd.c ****   uint32_t USBx_BASE = (uint32_t)USBx;
ARM GAS  /tmp/ccJjbwbP.s 			page 51


 1043              		.loc 1 1581 3 is_stmt 1 view .LVU282
 1044              	.LVL78:
1582:Drivers/STM32F4xx_HAL_Driver/Src/stm32f4xx_hal_hcd.c ****   __IO uint32_t hprt0, hprt0_dup;
 1045              		.loc 1 1582 3 view .LVU283
1583:Drivers/STM32F4xx_HAL_Driver/Src/stm32f4xx_hal_hcd.c **** 
1584:Drivers/STM32F4xx_HAL_Driver/Src/stm32f4xx_hal_hcd.c ****   /* Handle Host Port Interrupts */
1585:Drivers/STM32F4xx_HAL_Driver/Src/stm32f4xx_hal_hcd.c ****   hprt0 = USBx_HPRT0;
 1046              		.loc 1 1585 3 view .LVU284
 1047              		.loc 1 1585 11 is_stmt 0 view .LVU285
 1048 0008 D5F84034 		ldr	r3, [r5, #1088]
 1049              		.loc 1 1585 9 view .LVU286
 1050 000c 0193     		str	r3, [sp, #4]
1586:Drivers/STM32F4xx_HAL_Driver/Src/stm32f4xx_hal_hcd.c ****   hprt0_dup = USBx_HPRT0;
 1051              		.loc 1 1586 3 is_stmt 1 view .LVU287
 1052              		.loc 1 1586 15 is_stmt 0 view .LVU288
 1053 000e D5F84034 		ldr	r3, [r5, #1088]
 1054              		.loc 1 1586 13 view .LVU289
 1055 0012 0093     		str	r3, [sp]
1587:Drivers/STM32F4xx_HAL_Driver/Src/stm32f4xx_hal_hcd.c **** 
1588:Drivers/STM32F4xx_HAL_Driver/Src/stm32f4xx_hal_hcd.c ****   hprt0_dup &= ~(USB_OTG_HPRT_PENA | USB_OTG_HPRT_PCDET | \
 1056              		.loc 1 1588 3 is_stmt 1 view .LVU290
 1057              		.loc 1 1588 13 is_stmt 0 view .LVU291
 1058 0014 009B     		ldr	r3, [sp]
 1059 0016 23F02E03 		bic	r3, r3, #46
 1060 001a 0093     		str	r3, [sp]
1589:Drivers/STM32F4xx_HAL_Driver/Src/stm32f4xx_hal_hcd.c ****                  USB_OTG_HPRT_PENCHNG | USB_OTG_HPRT_POCCHNG);
1590:Drivers/STM32F4xx_HAL_Driver/Src/stm32f4xx_hal_hcd.c **** 
1591:Drivers/STM32F4xx_HAL_Driver/Src/stm32f4xx_hal_hcd.c ****   /* Check whether Port Connect detected */
1592:Drivers/STM32F4xx_HAL_Driver/Src/stm32f4xx_hal_hcd.c ****   if ((hprt0 & USB_OTG_HPRT_PCDET) == USB_OTG_HPRT_PCDET)
 1061              		.loc 1 1592 3 is_stmt 1 view .LVU292
 1062              		.loc 1 1592 14 is_stmt 0 view .LVU293
 1063 001c 019B     		ldr	r3, [sp, #4]
 1064              		.loc 1 1592 6 view .LVU294
 1065 001e 13F0020F 		tst	r3, #2
 1066 0022 07D0     		beq	.L65
1593:Drivers/STM32F4xx_HAL_Driver/Src/stm32f4xx_hal_hcd.c ****   {
1594:Drivers/STM32F4xx_HAL_Driver/Src/stm32f4xx_hal_hcd.c ****     if ((hprt0 & USB_OTG_HPRT_PCSTS) == USB_OTG_HPRT_PCSTS)
 1067              		.loc 1 1594 5 is_stmt 1 view .LVU295
 1068              		.loc 1 1594 16 is_stmt 0 view .LVU296
 1069 0024 019B     		ldr	r3, [sp, #4]
 1070              		.loc 1 1594 8 view .LVU297
 1071 0026 13F0010F 		tst	r3, #1
 1072 002a 25D1     		bne	.L74
 1073              	.LVL79:
 1074              	.L66:
1595:Drivers/STM32F4xx_HAL_Driver/Src/stm32f4xx_hal_hcd.c ****     {
1596:Drivers/STM32F4xx_HAL_Driver/Src/stm32f4xx_hal_hcd.c **** #if (USE_HAL_HCD_REGISTER_CALLBACKS == 1U)
1597:Drivers/STM32F4xx_HAL_Driver/Src/stm32f4xx_hal_hcd.c ****       hhcd->ConnectCallback(hhcd);
1598:Drivers/STM32F4xx_HAL_Driver/Src/stm32f4xx_hal_hcd.c **** #else
1599:Drivers/STM32F4xx_HAL_Driver/Src/stm32f4xx_hal_hcd.c ****       HAL_HCD_Connect_Callback(hhcd);
1600:Drivers/STM32F4xx_HAL_Driver/Src/stm32f4xx_hal_hcd.c **** #endif /* USE_HAL_HCD_REGISTER_CALLBACKS */
1601:Drivers/STM32F4xx_HAL_Driver/Src/stm32f4xx_hal_hcd.c ****     }
1602:Drivers/STM32F4xx_HAL_Driver/Src/stm32f4xx_hal_hcd.c ****     hprt0_dup  |= USB_OTG_HPRT_PCDET;
 1075              		.loc 1 1602 5 is_stmt 1 view .LVU298
 1076              		.loc 1 1602 16 is_stmt 0 view .LVU299
 1077 002c 009B     		ldr	r3, [sp]
 1078 002e 43F00203 		orr	r3, r3, #2
ARM GAS  /tmp/ccJjbwbP.s 			page 52


 1079 0032 0093     		str	r3, [sp]
 1080              	.L65:
1603:Drivers/STM32F4xx_HAL_Driver/Src/stm32f4xx_hal_hcd.c ****   }
1604:Drivers/STM32F4xx_HAL_Driver/Src/stm32f4xx_hal_hcd.c **** 
1605:Drivers/STM32F4xx_HAL_Driver/Src/stm32f4xx_hal_hcd.c ****   /* Check whether Port Enable Changed */
1606:Drivers/STM32F4xx_HAL_Driver/Src/stm32f4xx_hal_hcd.c ****   if ((hprt0 & USB_OTG_HPRT_PENCHNG) == USB_OTG_HPRT_PENCHNG)
 1081              		.loc 1 1606 3 is_stmt 1 view .LVU300
 1082              		.loc 1 1606 14 is_stmt 0 view .LVU301
 1083 0034 019B     		ldr	r3, [sp, #4]
 1084              		.loc 1 1606 6 view .LVU302
 1085 0036 13F0080F 		tst	r3, #8
 1086 003a 10D0     		beq	.L67
1607:Drivers/STM32F4xx_HAL_Driver/Src/stm32f4xx_hal_hcd.c ****   {
1608:Drivers/STM32F4xx_HAL_Driver/Src/stm32f4xx_hal_hcd.c ****     hprt0_dup |= USB_OTG_HPRT_PENCHNG;
 1087              		.loc 1 1608 5 is_stmt 1 view .LVU303
 1088              		.loc 1 1608 15 is_stmt 0 view .LVU304
 1089 003c 009B     		ldr	r3, [sp]
 1090 003e 43F00803 		orr	r3, r3, #8
 1091 0042 0093     		str	r3, [sp]
1609:Drivers/STM32F4xx_HAL_Driver/Src/stm32f4xx_hal_hcd.c **** 
1610:Drivers/STM32F4xx_HAL_Driver/Src/stm32f4xx_hal_hcd.c ****     if ((hprt0 & USB_OTG_HPRT_PENA) == USB_OTG_HPRT_PENA)
 1092              		.loc 1 1610 5 is_stmt 1 view .LVU305
 1093              		.loc 1 1610 16 is_stmt 0 view .LVU306
 1094 0044 019B     		ldr	r3, [sp, #4]
 1095              		.loc 1 1610 8 view .LVU307
 1096 0046 13F0040F 		tst	r3, #4
 1097 004a 2DD0     		beq	.L68
1611:Drivers/STM32F4xx_HAL_Driver/Src/stm32f4xx_hal_hcd.c ****     {
1612:Drivers/STM32F4xx_HAL_Driver/Src/stm32f4xx_hal_hcd.c ****       if (hhcd->Init.phy_itface  == USB_OTG_EMBEDDED_PHY)
 1098              		.loc 1 1612 7 is_stmt 1 view .LVU308
 1099              		.loc 1 1612 21 is_stmt 0 view .LVU309
 1100 004c A369     		ldr	r3, [r4, #24]
 1101              		.loc 1 1612 10 view .LVU310
 1102 004e 022B     		cmp	r3, #2
 1103 0050 15D0     		beq	.L75
1613:Drivers/STM32F4xx_HAL_Driver/Src/stm32f4xx_hal_hcd.c ****       {
1614:Drivers/STM32F4xx_HAL_Driver/Src/stm32f4xx_hal_hcd.c ****         if ((hprt0 & USB_OTG_HPRT_PSPD) == (HPRT0_PRTSPD_LOW_SPEED << 17))
1615:Drivers/STM32F4xx_HAL_Driver/Src/stm32f4xx_hal_hcd.c ****         {
1616:Drivers/STM32F4xx_HAL_Driver/Src/stm32f4xx_hal_hcd.c ****           (void)USB_InitFSLSPClkSel(hhcd->Instance, HCFG_6_MHZ);
1617:Drivers/STM32F4xx_HAL_Driver/Src/stm32f4xx_hal_hcd.c ****         }
1618:Drivers/STM32F4xx_HAL_Driver/Src/stm32f4xx_hal_hcd.c ****         else
1619:Drivers/STM32F4xx_HAL_Driver/Src/stm32f4xx_hal_hcd.c ****         {
1620:Drivers/STM32F4xx_HAL_Driver/Src/stm32f4xx_hal_hcd.c ****           (void)USB_InitFSLSPClkSel(hhcd->Instance, HCFG_48_MHZ);
1621:Drivers/STM32F4xx_HAL_Driver/Src/stm32f4xx_hal_hcd.c ****         }
1622:Drivers/STM32F4xx_HAL_Driver/Src/stm32f4xx_hal_hcd.c ****       }
1623:Drivers/STM32F4xx_HAL_Driver/Src/stm32f4xx_hal_hcd.c ****       else
1624:Drivers/STM32F4xx_HAL_Driver/Src/stm32f4xx_hal_hcd.c ****       {
1625:Drivers/STM32F4xx_HAL_Driver/Src/stm32f4xx_hal_hcd.c ****         if (hhcd->Init.speed == HCD_SPEED_FULL)
 1104              		.loc 1 1625 9 is_stmt 1 view .LVU311
 1105              		.loc 1 1625 23 is_stmt 0 view .LVU312
 1106 0052 E368     		ldr	r3, [r4, #12]
 1107              		.loc 1 1625 12 view .LVU313
 1108 0054 012B     		cmp	r3, #1
 1109 0056 22D0     		beq	.L76
 1110              	.L71:
1626:Drivers/STM32F4xx_HAL_Driver/Src/stm32f4xx_hal_hcd.c ****         {
1627:Drivers/STM32F4xx_HAL_Driver/Src/stm32f4xx_hal_hcd.c ****           USBx_HOST->HFIR = 60000U;
ARM GAS  /tmp/ccJjbwbP.s 			page 53


1628:Drivers/STM32F4xx_HAL_Driver/Src/stm32f4xx_hal_hcd.c ****         }
1629:Drivers/STM32F4xx_HAL_Driver/Src/stm32f4xx_hal_hcd.c ****       }
1630:Drivers/STM32F4xx_HAL_Driver/Src/stm32f4xx_hal_hcd.c **** #if (USE_HAL_HCD_REGISTER_CALLBACKS == 1U)
1631:Drivers/STM32F4xx_HAL_Driver/Src/stm32f4xx_hal_hcd.c ****       hhcd->PortEnabledCallback(hhcd);
1632:Drivers/STM32F4xx_HAL_Driver/Src/stm32f4xx_hal_hcd.c **** #else
1633:Drivers/STM32F4xx_HAL_Driver/Src/stm32f4xx_hal_hcd.c ****       HAL_HCD_PortEnabled_Callback(hhcd);
 1111              		.loc 1 1633 7 is_stmt 1 view .LVU314
 1112 0058 2046     		mov	r0, r4
 1113 005a FFF7FEFF 		bl	HAL_HCD_PortEnabled_Callback
 1114              	.LVL80:
 1115              	.L67:
1634:Drivers/STM32F4xx_HAL_Driver/Src/stm32f4xx_hal_hcd.c **** #endif /* USE_HAL_HCD_REGISTER_CALLBACKS */
1635:Drivers/STM32F4xx_HAL_Driver/Src/stm32f4xx_hal_hcd.c **** 
1636:Drivers/STM32F4xx_HAL_Driver/Src/stm32f4xx_hal_hcd.c ****     }
1637:Drivers/STM32F4xx_HAL_Driver/Src/stm32f4xx_hal_hcd.c ****     else
1638:Drivers/STM32F4xx_HAL_Driver/Src/stm32f4xx_hal_hcd.c ****     {
1639:Drivers/STM32F4xx_HAL_Driver/Src/stm32f4xx_hal_hcd.c **** #if (USE_HAL_HCD_REGISTER_CALLBACKS == 1U)
1640:Drivers/STM32F4xx_HAL_Driver/Src/stm32f4xx_hal_hcd.c ****       hhcd->PortDisabledCallback(hhcd);
1641:Drivers/STM32F4xx_HAL_Driver/Src/stm32f4xx_hal_hcd.c **** #else
1642:Drivers/STM32F4xx_HAL_Driver/Src/stm32f4xx_hal_hcd.c ****       HAL_HCD_PortDisabled_Callback(hhcd);
1643:Drivers/STM32F4xx_HAL_Driver/Src/stm32f4xx_hal_hcd.c **** #endif /* USE_HAL_HCD_REGISTER_CALLBACKS */
1644:Drivers/STM32F4xx_HAL_Driver/Src/stm32f4xx_hal_hcd.c ****     }
1645:Drivers/STM32F4xx_HAL_Driver/Src/stm32f4xx_hal_hcd.c ****   }
1646:Drivers/STM32F4xx_HAL_Driver/Src/stm32f4xx_hal_hcd.c **** 
1647:Drivers/STM32F4xx_HAL_Driver/Src/stm32f4xx_hal_hcd.c ****   /* Check for an overcurrent */
1648:Drivers/STM32F4xx_HAL_Driver/Src/stm32f4xx_hal_hcd.c ****   if ((hprt0 & USB_OTG_HPRT_POCCHNG) == USB_OTG_HPRT_POCCHNG)
 1116              		.loc 1 1648 3 view .LVU315
 1117              		.loc 1 1648 14 is_stmt 0 view .LVU316
 1118 005e 019B     		ldr	r3, [sp, #4]
 1119              		.loc 1 1648 6 view .LVU317
 1120 0060 13F0200F 		tst	r3, #32
 1121 0064 03D0     		beq	.L72
1649:Drivers/STM32F4xx_HAL_Driver/Src/stm32f4xx_hal_hcd.c ****   {
1650:Drivers/STM32F4xx_HAL_Driver/Src/stm32f4xx_hal_hcd.c ****     hprt0_dup |= USB_OTG_HPRT_POCCHNG;
 1122              		.loc 1 1650 5 is_stmt 1 view .LVU318
 1123              		.loc 1 1650 15 is_stmt 0 view .LVU319
 1124 0066 009B     		ldr	r3, [sp]
 1125 0068 43F02003 		orr	r3, r3, #32
 1126 006c 0093     		str	r3, [sp]
 1127              	.L72:
1651:Drivers/STM32F4xx_HAL_Driver/Src/stm32f4xx_hal_hcd.c ****   }
1652:Drivers/STM32F4xx_HAL_Driver/Src/stm32f4xx_hal_hcd.c **** 
1653:Drivers/STM32F4xx_HAL_Driver/Src/stm32f4xx_hal_hcd.c ****   /* Clear Port Interrupts */
1654:Drivers/STM32F4xx_HAL_Driver/Src/stm32f4xx_hal_hcd.c ****   USBx_HPRT0 = hprt0_dup;
 1128              		.loc 1 1654 3 is_stmt 1 view .LVU320
 1129              		.loc 1 1654 14 is_stmt 0 view .LVU321
 1130 006e 009B     		ldr	r3, [sp]
 1131 0070 C5F84034 		str	r3, [r5, #1088]
1655:Drivers/STM32F4xx_HAL_Driver/Src/stm32f4xx_hal_hcd.c **** }
 1132              		.loc 1 1655 1 view .LVU322
 1133 0074 03B0     		add	sp, sp, #12
 1134              	.LCFI17:
 1135              		.cfi_remember_state
 1136              		.cfi_def_cfa_offset 12
 1137              		@ sp needed
 1138 0076 30BD     		pop	{r4, r5, pc}
 1139              	.LVL81:
ARM GAS  /tmp/ccJjbwbP.s 			page 54


 1140              	.L74:
 1141              	.LCFI18:
 1142              		.cfi_restore_state
1599:Drivers/STM32F4xx_HAL_Driver/Src/stm32f4xx_hal_hcd.c **** #endif /* USE_HAL_HCD_REGISTER_CALLBACKS */
 1143              		.loc 1 1599 7 is_stmt 1 view .LVU323
 1144 0078 FFF7FEFF 		bl	HAL_HCD_Connect_Callback
 1145              	.LVL82:
1599:Drivers/STM32F4xx_HAL_Driver/Src/stm32f4xx_hal_hcd.c **** #endif /* USE_HAL_HCD_REGISTER_CALLBACKS */
 1146              		.loc 1 1599 7 is_stmt 0 view .LVU324
 1147 007c D6E7     		b	.L66
 1148              	.L75:
1614:Drivers/STM32F4xx_HAL_Driver/Src/stm32f4xx_hal_hcd.c ****         {
 1149              		.loc 1 1614 9 is_stmt 1 view .LVU325
1614:Drivers/STM32F4xx_HAL_Driver/Src/stm32f4xx_hal_hcd.c ****         {
 1150              		.loc 1 1614 20 is_stmt 0 view .LVU326
 1151 007e 019B     		ldr	r3, [sp, #4]
 1152 0080 03F4C023 		and	r3, r3, #393216
1614:Drivers/STM32F4xx_HAL_Driver/Src/stm32f4xx_hal_hcd.c ****         {
 1153              		.loc 1 1614 12 view .LVU327
 1154 0084 B3F5802F 		cmp	r3, #262144
 1155 0088 04D0     		beq	.L77
1620:Drivers/STM32F4xx_HAL_Driver/Src/stm32f4xx_hal_hcd.c ****         }
 1156              		.loc 1 1620 11 is_stmt 1 view .LVU328
1620:Drivers/STM32F4xx_HAL_Driver/Src/stm32f4xx_hal_hcd.c ****         }
 1157              		.loc 1 1620 17 is_stmt 0 view .LVU329
 1158 008a 0121     		movs	r1, #1
 1159 008c 2068     		ldr	r0, [r4]
 1160 008e FFF7FEFF 		bl	USB_InitFSLSPClkSel
 1161              	.LVL83:
 1162 0092 E1E7     		b	.L71
 1163              	.L77:
1616:Drivers/STM32F4xx_HAL_Driver/Src/stm32f4xx_hal_hcd.c ****         }
 1164              		.loc 1 1616 11 is_stmt 1 view .LVU330
1616:Drivers/STM32F4xx_HAL_Driver/Src/stm32f4xx_hal_hcd.c ****         }
 1165              		.loc 1 1616 17 is_stmt 0 view .LVU331
 1166 0094 0221     		movs	r1, #2
 1167 0096 2068     		ldr	r0, [r4]
 1168 0098 FFF7FEFF 		bl	USB_InitFSLSPClkSel
 1169              	.LVL84:
 1170 009c DCE7     		b	.L71
 1171              	.L76:
1627:Drivers/STM32F4xx_HAL_Driver/Src/stm32f4xx_hal_hcd.c ****         }
 1172              		.loc 1 1627 11 is_stmt 1 view .LVU332
1627:Drivers/STM32F4xx_HAL_Driver/Src/stm32f4xx_hal_hcd.c ****         }
 1173              		.loc 1 1627 27 is_stmt 0 view .LVU333
 1174 009e 4EF66022 		movw	r2, #60000
 1175 00a2 C5F80424 		str	r2, [r5, #1028]
 1176 00a6 D7E7     		b	.L71
 1177              	.L68:
1642:Drivers/STM32F4xx_HAL_Driver/Src/stm32f4xx_hal_hcd.c **** #endif /* USE_HAL_HCD_REGISTER_CALLBACKS */
 1178              		.loc 1 1642 7 is_stmt 1 view .LVU334
 1179 00a8 2046     		mov	r0, r4
 1180 00aa FFF7FEFF 		bl	HAL_HCD_PortDisabled_Callback
 1181              	.LVL85:
 1182 00ae D6E7     		b	.L67
 1183              		.cfi_endproc
 1184              	.LFE157:
ARM GAS  /tmp/ccJjbwbP.s 			page 55


 1186              		.section	.text.HAL_HCD_HC_NotifyURBChange_Callback,"ax",%progbits
 1187              		.align	1
 1188              		.weak	HAL_HCD_HC_NotifyURBChange_Callback
 1189              		.syntax unified
 1190              		.thumb
 1191              		.thumb_func
 1192              		.fpu fpv4-sp-d16
 1194              	HAL_HCD_HC_NotifyURBChange_Callback:
 1195              	.LVL86:
 1196              	.LFB144:
 705:Drivers/STM32F4xx_HAL_Driver/Src/stm32f4xx_hal_hcd.c ****   /* Prevent unused argument(s) compilation warning */
 1197              		.loc 1 705 1 view -0
 1198              		.cfi_startproc
 1199              		@ args = 0, pretend = 0, frame = 0
 1200              		@ frame_needed = 0, uses_anonymous_args = 0
 1201              		@ link register save eliminated.
 707:Drivers/STM32F4xx_HAL_Driver/Src/stm32f4xx_hal_hcd.c ****   UNUSED(chnum);
 1202              		.loc 1 707 3 view .LVU336
 708:Drivers/STM32F4xx_HAL_Driver/Src/stm32f4xx_hal_hcd.c ****   UNUSED(urb_state);
 1203              		.loc 1 708 3 view .LVU337
 709:Drivers/STM32F4xx_HAL_Driver/Src/stm32f4xx_hal_hcd.c **** 
 1204              		.loc 1 709 3 view .LVU338
 714:Drivers/STM32F4xx_HAL_Driver/Src/stm32f4xx_hal_hcd.c **** 
 1205              		.loc 1 714 1 is_stmt 0 view .LVU339
 1206 0000 7047     		bx	lr
 1207              		.cfi_endproc
 1208              	.LFE144:
 1210              		.section	.text.HCD_HC_IN_IRQHandler,"ax",%progbits
 1211              		.align	1
 1212              		.syntax unified
 1213              		.thumb
 1214              		.thumb_func
 1215              		.fpu fpv4-sp-d16
 1217              	HCD_HC_IN_IRQHandler:
 1218              	.LVL87:
 1219              	.LFB154:
1176:Drivers/STM32F4xx_HAL_Driver/Src/stm32f4xx_hal_hcd.c ****   USB_OTG_GlobalTypeDef *USBx = hhcd->Instance;
 1220              		.loc 1 1176 1 is_stmt 1 view -0
 1221              		.cfi_startproc
 1222              		@ args = 0, pretend = 0, frame = 0
 1223              		@ frame_needed = 0, uses_anonymous_args = 0
1176:Drivers/STM32F4xx_HAL_Driver/Src/stm32f4xx_hal_hcd.c ****   USB_OTG_GlobalTypeDef *USBx = hhcd->Instance;
 1224              		.loc 1 1176 1 is_stmt 0 view .LVU341
 1225 0000 F8B5     		push	{r3, r4, r5, r6, r7, lr}
 1226              	.LCFI19:
 1227              		.cfi_def_cfa_offset 24
 1228              		.cfi_offset 3, -24
 1229              		.cfi_offset 4, -20
 1230              		.cfi_offset 5, -16
 1231              		.cfi_offset 6, -12
 1232              		.cfi_offset 7, -8
 1233              		.cfi_offset 14, -4
 1234 0002 0646     		mov	r6, r0
 1235 0004 0C46     		mov	r4, r1
1177:Drivers/STM32F4xx_HAL_Driver/Src/stm32f4xx_hal_hcd.c ****   uint32_t USBx_BASE = (uint32_t)USBx;
 1236              		.loc 1 1177 3 is_stmt 1 view .LVU342
1177:Drivers/STM32F4xx_HAL_Driver/Src/stm32f4xx_hal_hcd.c ****   uint32_t USBx_BASE = (uint32_t)USBx;
ARM GAS  /tmp/ccJjbwbP.s 			page 56


 1237              		.loc 1 1177 26 is_stmt 0 view .LVU343
 1238 0006 0768     		ldr	r7, [r0]
 1239              	.LVL88:
1178:Drivers/STM32F4xx_HAL_Driver/Src/stm32f4xx_hal_hcd.c ****   uint32_t ch_num = (uint32_t)chnum;
 1240              		.loc 1 1178 3 is_stmt 1 view .LVU344
1179:Drivers/STM32F4xx_HAL_Driver/Src/stm32f4xx_hal_hcd.c **** 
 1241              		.loc 1 1179 3 view .LVU345
1181:Drivers/STM32F4xx_HAL_Driver/Src/stm32f4xx_hal_hcd.c **** 
 1242              		.loc 1 1181 3 view .LVU346
1183:Drivers/STM32F4xx_HAL_Driver/Src/stm32f4xx_hal_hcd.c ****   {
 1243              		.loc 1 1183 3 view .LVU347
1183:Drivers/STM32F4xx_HAL_Driver/Src/stm32f4xx_hal_hcd.c ****   {
 1244              		.loc 1 1183 8 is_stmt 0 view .LVU348
 1245 0008 07EB4117 		add	r7, r7, r1, lsl #5
 1246              	.LVL89:
1183:Drivers/STM32F4xx_HAL_Driver/Src/stm32f4xx_hal_hcd.c ****   {
 1247              		.loc 1 1183 8 view .LVU349
 1248 000c 07F5A065 		add	r5, r7, #1280
1183:Drivers/STM32F4xx_HAL_Driver/Src/stm32f4xx_hal_hcd.c ****   {
 1249              		.loc 1 1183 23 view .LVU350
 1250 0010 AB68     		ldr	r3, [r5, #8]
1183:Drivers/STM32F4xx_HAL_Driver/Src/stm32f4xx_hal_hcd.c ****   {
 1251              		.loc 1 1183 6 view .LVU351
 1252 0012 13F0040F 		tst	r3, #4
 1253 0016 40D0     		beq	.L80
1185:Drivers/STM32F4xx_HAL_Driver/Src/stm32f4xx_hal_hcd.c ****     __HAL_HCD_UNMASK_HALT_HC_INT(ch_num);
 1254              		.loc 1 1185 5 is_stmt 1 view .LVU352
 1255 0018 0423     		movs	r3, #4
 1256 001a AB60     		str	r3, [r5, #8]
 1257              	.LVL90:
1186:Drivers/STM32F4xx_HAL_Driver/Src/stm32f4xx_hal_hcd.c ****   }
 1258              		.loc 1 1186 5 view .LVU353
 1259 001c EB68     		ldr	r3, [r5, #12]
 1260 001e 43F00203 		orr	r3, r3, #2
 1261 0022 EB60     		str	r3, [r5, #12]
 1262              	.LVL91:
 1263              	.L81:
1218:Drivers/STM32F4xx_HAL_Driver/Src/stm32f4xx_hal_hcd.c **** 
 1264              		.loc 1 1218 3 view .LVU354
1220:Drivers/STM32F4xx_HAL_Driver/Src/stm32f4xx_hal_hcd.c ****   {
 1265              		.loc 1 1220 3 view .LVU355
1220:Drivers/STM32F4xx_HAL_Driver/Src/stm32f4xx_hal_hcd.c ****   {
 1266              		.loc 1 1220 23 is_stmt 0 view .LVU356
 1267 0024 AB68     		ldr	r3, [r5, #8]
1220:Drivers/STM32F4xx_HAL_Driver/Src/stm32f4xx_hal_hcd.c ****   {
 1268              		.loc 1 1220 6 view .LVU357
 1269 0026 13F4007F 		tst	r3, #512
 1270 002a 40F08280 		bne	.L107
1226:Drivers/STM32F4xx_HAL_Driver/Src/stm32f4xx_hal_hcd.c ****   {
 1271              		.loc 1 1226 8 is_stmt 1 view .LVU358
1226:Drivers/STM32F4xx_HAL_Driver/Src/stm32f4xx_hal_hcd.c ****   {
 1272              		.loc 1 1226 28 is_stmt 0 view .LVU359
 1273 002e AB68     		ldr	r3, [r5, #8]
1226:Drivers/STM32F4xx_HAL_Driver/Src/stm32f4xx_hal_hcd.c ****   {
 1274              		.loc 1 1226 11 view .LVU360
 1275 0030 13F0010F 		tst	r3, #1
 1276 0034 00F0B080 		beq	.L87
ARM GAS  /tmp/ccJjbwbP.s 			page 57


1228:Drivers/STM32F4xx_HAL_Driver/Src/stm32f4xx_hal_hcd.c ****     {
 1277              		.loc 1 1228 5 is_stmt 1 view .LVU361
1228:Drivers/STM32F4xx_HAL_Driver/Src/stm32f4xx_hal_hcd.c ****     {
 1278              		.loc 1 1228 19 is_stmt 0 view .LVU362
 1279 0038 3369     		ldr	r3, [r6, #16]
1228:Drivers/STM32F4xx_HAL_Driver/Src/stm32f4xx_hal_hcd.c ****     {
 1280              		.loc 1 1228 8 view .LVU363
 1281 003a 4BB1     		cbz	r3, .L88
1230:Drivers/STM32F4xx_HAL_Driver/Src/stm32f4xx_hal_hcd.c ****                                     (USBx_HC(ch_num)->HCTSIZ & USB_OTG_HCTSIZ_XFRSIZ);
 1282              		.loc 1 1230 7 is_stmt 1 view .LVU364
1230:Drivers/STM32F4xx_HAL_Driver/Src/stm32f4xx_hal_hcd.c ****                                     (USBx_HC(ch_num)->HCTSIZ & USB_OTG_HCTSIZ_XFRSIZ);
 1283              		.loc 1 1230 53 is_stmt 0 view .LVU365
 1284 003c 04EB8403 		add	r3, r4, r4, lsl #2
 1285 0040 06EBC303 		add	r3, r6, r3, lsl #3
 1286 0044 9A6C     		ldr	r2, [r3, #72]
1231:Drivers/STM32F4xx_HAL_Driver/Src/stm32f4xx_hal_hcd.c ****     }
 1287              		.loc 1 1231 53 view .LVU366
 1288 0046 2969     		ldr	r1, [r5, #16]
1231:Drivers/STM32F4xx_HAL_Driver/Src/stm32f4xx_hal_hcd.c ****     }
 1289              		.loc 1 1231 62 view .LVU367
 1290 0048 C1F31201 		ubfx	r1, r1, #0, #19
1230:Drivers/STM32F4xx_HAL_Driver/Src/stm32f4xx_hal_hcd.c ****                                     (USBx_HC(ch_num)->HCTSIZ & USB_OTG_HCTSIZ_XFRSIZ);
 1291              		.loc 1 1230 63 view .LVU368
 1292 004c 521A     		subs	r2, r2, r1
1230:Drivers/STM32F4xx_HAL_Driver/Src/stm32f4xx_hal_hcd.c ****                                     (USBx_HC(ch_num)->HCTSIZ & USB_OTG_HCTSIZ_XFRSIZ);
 1293              		.loc 1 1230 35 view .LVU369
 1294 004e DA64     		str	r2, [r3, #76]
 1295              	.L88:
1234:Drivers/STM32F4xx_HAL_Driver/Src/stm32f4xx_hal_hcd.c ****     hhcd->hc[ch_num].ErrCnt = 0U;
 1296              		.loc 1 1234 5 is_stmt 1 view .LVU370
1234:Drivers/STM32F4xx_HAL_Driver/Src/stm32f4xx_hal_hcd.c ****     hhcd->hc[ch_num].ErrCnt = 0U;
 1297              		.loc 1 1234 28 is_stmt 0 view .LVU371
 1298 0050 04EB8403 		add	r3, r4, r4, lsl #2
 1299 0054 06EBC303 		add	r3, r6, r3, lsl #3
 1300 0058 0122     		movs	r2, #1
 1301 005a 83F85D20 		strb	r2, [r3, #93]
1235:Drivers/STM32F4xx_HAL_Driver/Src/stm32f4xx_hal_hcd.c ****     __HAL_HCD_CLEAR_HC_INT(ch_num, USB_OTG_HCINT_XFRC);
 1302              		.loc 1 1235 5 is_stmt 1 view .LVU372
1235:Drivers/STM32F4xx_HAL_Driver/Src/stm32f4xx_hal_hcd.c ****     __HAL_HCD_CLEAR_HC_INT(ch_num, USB_OTG_HCINT_XFRC);
 1303              		.loc 1 1235 29 is_stmt 0 view .LVU373
 1304 005e 0021     		movs	r1, #0
 1305 0060 9965     		str	r1, [r3, #88]
1236:Drivers/STM32F4xx_HAL_Driver/Src/stm32f4xx_hal_hcd.c **** 
 1306              		.loc 1 1236 5 is_stmt 1 view .LVU374
 1307 0062 AA60     		str	r2, [r5, #8]
1238:Drivers/STM32F4xx_HAL_Driver/Src/stm32f4xx_hal_hcd.c ****         (hhcd->hc[ch_num].ep_type == EP_TYPE_BULK))
 1308              		.loc 1 1238 5 view .LVU375
1238:Drivers/STM32F4xx_HAL_Driver/Src/stm32f4xx_hal_hcd.c ****         (hhcd->hc[ch_num].ep_type == EP_TYPE_BULK))
 1309              		.loc 1 1238 26 is_stmt 0 view .LVU376
 1310 0064 93F83F30 		ldrb	r3, [r3, #63]	@ zero_extendqisi2
1238:Drivers/STM32F4xx_HAL_Driver/Src/stm32f4xx_hal_hcd.c ****         (hhcd->hc[ch_num].ep_type == EP_TYPE_BULK))
 1311              		.loc 1 1238 8 view .LVU377
 1312 0068 002B     		cmp	r3, #0
 1313 006a 6ED0     		beq	.L89
1238:Drivers/STM32F4xx_HAL_Driver/Src/stm32f4xx_hal_hcd.c ****         (hhcd->hc[ch_num].ep_type == EP_TYPE_BULK))
 1314              		.loc 1 1238 52 discriminator 1 view .LVU378
 1315 006c 022B     		cmp	r3, #2
ARM GAS  /tmp/ccJjbwbP.s 			page 58


 1316 006e 6CD0     		beq	.L89
1245:Drivers/STM32F4xx_HAL_Driver/Src/stm32f4xx_hal_hcd.c ****     {
 1317              		.loc 1 1245 10 is_stmt 1 view .LVU379
1245:Drivers/STM32F4xx_HAL_Driver/Src/stm32f4xx_hal_hcd.c ****     {
 1318              		.loc 1 1245 13 is_stmt 0 view .LVU380
 1319 0070 032B     		cmp	r3, #3
 1320 0072 7FD0     		beq	.L108
1256:Drivers/STM32F4xx_HAL_Driver/Src/stm32f4xx_hal_hcd.c ****     {
 1321              		.loc 1 1256 10 is_stmt 1 view .LVU381
1256:Drivers/STM32F4xx_HAL_Driver/Src/stm32f4xx_hal_hcd.c ****     {
 1322              		.loc 1 1256 13 is_stmt 0 view .LVU382
 1323 0074 012B     		cmp	r3, #1
 1324 0076 72D1     		bne	.L91
1258:Drivers/STM32F4xx_HAL_Driver/Src/stm32f4xx_hal_hcd.c ****       hhcd->hc[ch_num].toggle_in ^= 1U;
 1325              		.loc 1 1258 7 is_stmt 1 view .LVU383
1258:Drivers/STM32F4xx_HAL_Driver/Src/stm32f4xx_hal_hcd.c ****       hhcd->hc[ch_num].toggle_in ^= 1U;
 1326              		.loc 1 1258 34 is_stmt 0 view .LVU384
 1327 0078 04EB8403 		add	r3, r4, r4, lsl #2
 1328 007c 06EBC303 		add	r3, r6, r3, lsl #3
 1329 0080 0122     		movs	r2, #1
 1330 0082 83F85C20 		strb	r2, [r3, #92]
1259:Drivers/STM32F4xx_HAL_Driver/Src/stm32f4xx_hal_hcd.c **** 
 1331              		.loc 1 1259 7 is_stmt 1 view .LVU385
1259:Drivers/STM32F4xx_HAL_Driver/Src/stm32f4xx_hal_hcd.c **** 
 1332              		.loc 1 1259 34 is_stmt 0 view .LVU386
 1333 0086 93F85010 		ldrb	r1, [r3, #80]	@ zero_extendqisi2
 1334 008a 5140     		eors	r1, r1, r2
 1335 008c 83F85010 		strb	r1, [r3, #80]
1264:Drivers/STM32F4xx_HAL_Driver/Src/stm32f4xx_hal_hcd.c **** #endif /* USE_HAL_HCD_REGISTER_CALLBACKS */
 1336              		.loc 1 1264 7 is_stmt 1 view .LVU387
 1337 0090 2146     		mov	r1, r4
 1338 0092 3046     		mov	r0, r6
 1339 0094 FFF7FEFF 		bl	HAL_HCD_HC_NotifyURBChange_Callback
 1340              	.LVL92:
 1341 0098 61E0     		b	.L91
 1342              	.LVL93:
 1343              	.L80:
1188:Drivers/STM32F4xx_HAL_Driver/Src/stm32f4xx_hal_hcd.c ****   {
 1344              		.loc 1 1188 8 view .LVU388
1188:Drivers/STM32F4xx_HAL_Driver/Src/stm32f4xx_hal_hcd.c ****   {
 1345              		.loc 1 1188 28 is_stmt 0 view .LVU389
 1346 009a AB68     		ldr	r3, [r5, #8]
1188:Drivers/STM32F4xx_HAL_Driver/Src/stm32f4xx_hal_hcd.c ****   {
 1347              		.loc 1 1188 11 view .LVU390
 1348 009c 13F4807F 		tst	r3, #256
 1349 00a0 06D1     		bne	.L109
1195:Drivers/STM32F4xx_HAL_Driver/Src/stm32f4xx_hal_hcd.c ****   {
 1350              		.loc 1 1195 8 is_stmt 1 view .LVU391
1195:Drivers/STM32F4xx_HAL_Driver/Src/stm32f4xx_hal_hcd.c ****   {
 1351              		.loc 1 1195 28 is_stmt 0 view .LVU392
 1352 00a2 AB68     		ldr	r3, [r5, #8]
1195:Drivers/STM32F4xx_HAL_Driver/Src/stm32f4xx_hal_hcd.c ****   {
 1353              		.loc 1 1195 11 view .LVU393
 1354 00a4 13F0200F 		tst	r3, #32
 1355 00a8 14D0     		beq	.L83
1197:Drivers/STM32F4xx_HAL_Driver/Src/stm32f4xx_hal_hcd.c ****   }
 1356              		.loc 1 1197 5 is_stmt 1 view .LVU394
ARM GAS  /tmp/ccJjbwbP.s 			page 59


 1357 00aa 2023     		movs	r3, #32
 1358 00ac AB60     		str	r3, [r5, #8]
 1359              	.LVL94:
1197:Drivers/STM32F4xx_HAL_Driver/Src/stm32f4xx_hal_hcd.c ****   }
 1360              		.loc 1 1197 5 is_stmt 0 view .LVU395
 1361 00ae B9E7     		b	.L81
 1362              	.LVL95:
 1363              	.L109:
1190:Drivers/STM32F4xx_HAL_Driver/Src/stm32f4xx_hal_hcd.c ****     hhcd->hc[ch_num].state = HC_BBLERR;
 1364              		.loc 1 1190 5 is_stmt 1 view .LVU396
 1365 00b0 4FF48073 		mov	r3, #256
 1366 00b4 AB60     		str	r3, [r5, #8]
 1367              	.LVL96:
1191:Drivers/STM32F4xx_HAL_Driver/Src/stm32f4xx_hal_hcd.c ****     __HAL_HCD_UNMASK_HALT_HC_INT(ch_num);
 1368              		.loc 1 1191 5 view .LVU397
1191:Drivers/STM32F4xx_HAL_Driver/Src/stm32f4xx_hal_hcd.c ****     __HAL_HCD_UNMASK_HALT_HC_INT(ch_num);
 1369              		.loc 1 1191 28 is_stmt 0 view .LVU398
 1370 00b6 01EB8103 		add	r3, r1, r1, lsl #2
 1371 00ba 00EBC303 		add	r3, r0, r3, lsl #3
 1372 00be 0722     		movs	r2, #7
 1373 00c0 83F85D20 		strb	r2, [r3, #93]
1192:Drivers/STM32F4xx_HAL_Driver/Src/stm32f4xx_hal_hcd.c ****     (void)USB_HC_Halt(hhcd->Instance, (uint8_t)ch_num);
 1374              		.loc 1 1192 5 is_stmt 1 view .LVU399
 1375 00c4 EB68     		ldr	r3, [r5, #12]
 1376 00c6 43F00203 		orr	r3, r3, #2
 1377 00ca EB60     		str	r3, [r5, #12]
1193:Drivers/STM32F4xx_HAL_Driver/Src/stm32f4xx_hal_hcd.c ****   }
 1378              		.loc 1 1193 5 view .LVU400
1193:Drivers/STM32F4xx_HAL_Driver/Src/stm32f4xx_hal_hcd.c ****   }
 1379              		.loc 1 1193 11 is_stmt 0 view .LVU401
 1380 00cc 0068     		ldr	r0, [r0]
 1381              	.LVL97:
1193:Drivers/STM32F4xx_HAL_Driver/Src/stm32f4xx_hal_hcd.c ****   }
 1382              		.loc 1 1193 11 view .LVU402
 1383 00ce FFF7FEFF 		bl	USB_HC_Halt
 1384              	.LVL98:
1193:Drivers/STM32F4xx_HAL_Driver/Src/stm32f4xx_hal_hcd.c ****   }
 1385              		.loc 1 1193 11 view .LVU403
 1386 00d2 A7E7     		b	.L81
 1387              	.LVL99:
 1388              	.L83:
1199:Drivers/STM32F4xx_HAL_Driver/Src/stm32f4xx_hal_hcd.c ****   {
 1389              		.loc 1 1199 8 is_stmt 1 view .LVU404
1199:Drivers/STM32F4xx_HAL_Driver/Src/stm32f4xx_hal_hcd.c ****   {
 1390              		.loc 1 1199 28 is_stmt 0 view .LVU405
 1391 00d4 AB68     		ldr	r3, [r5, #8]
1199:Drivers/STM32F4xx_HAL_Driver/Src/stm32f4xx_hal_hcd.c ****   {
 1392              		.loc 1 1199 11 view .LVU406
 1393 00d6 13F0080F 		tst	r3, #8
 1394 00da 17D1     		bne	.L110
1207:Drivers/STM32F4xx_HAL_Driver/Src/stm32f4xx_hal_hcd.c ****   {
 1395              		.loc 1 1207 8 is_stmt 1 view .LVU407
1207:Drivers/STM32F4xx_HAL_Driver/Src/stm32f4xx_hal_hcd.c ****   {
 1396              		.loc 1 1207 28 is_stmt 0 view .LVU408
 1397 00dc AB68     		ldr	r3, [r5, #8]
1207:Drivers/STM32F4xx_HAL_Driver/Src/stm32f4xx_hal_hcd.c ****   {
 1398              		.loc 1 1207 11 view .LVU409
ARM GAS  /tmp/ccJjbwbP.s 			page 60


 1399 00de 13F4806F 		tst	r3, #1024
 1400 00e2 9FD0     		beq	.L81
1209:Drivers/STM32F4xx_HAL_Driver/Src/stm32f4xx_hal_hcd.c ****     (void)USB_HC_Halt(hhcd->Instance, (uint8_t)ch_num);
 1401              		.loc 1 1209 5 is_stmt 1 view .LVU410
 1402 00e4 EB68     		ldr	r3, [r5, #12]
 1403 00e6 43F00203 		orr	r3, r3, #2
 1404 00ea EB60     		str	r3, [r5, #12]
 1405              	.LVL100:
1210:Drivers/STM32F4xx_HAL_Driver/Src/stm32f4xx_hal_hcd.c ****     __HAL_HCD_CLEAR_HC_INT(ch_num, USB_OTG_HCINT_NAK);
 1406              		.loc 1 1210 5 view .LVU411
1210:Drivers/STM32F4xx_HAL_Driver/Src/stm32f4xx_hal_hcd.c ****     __HAL_HCD_CLEAR_HC_INT(ch_num, USB_OTG_HCINT_NAK);
 1407              		.loc 1 1210 11 is_stmt 0 view .LVU412
 1408 00ec 0068     		ldr	r0, [r0]
 1409              	.LVL101:
1210:Drivers/STM32F4xx_HAL_Driver/Src/stm32f4xx_hal_hcd.c ****     __HAL_HCD_CLEAR_HC_INT(ch_num, USB_OTG_HCINT_NAK);
 1410              		.loc 1 1210 11 view .LVU413
 1411 00ee FFF7FEFF 		bl	USB_HC_Halt
 1412              	.LVL102:
1211:Drivers/STM32F4xx_HAL_Driver/Src/stm32f4xx_hal_hcd.c ****     hhcd->hc[ch_num].state = HC_DATATGLERR;
 1413              		.loc 1 1211 5 is_stmt 1 view .LVU414
 1414 00f2 1023     		movs	r3, #16
 1415 00f4 AB60     		str	r3, [r5, #8]
1212:Drivers/STM32F4xx_HAL_Driver/Src/stm32f4xx_hal_hcd.c ****     __HAL_HCD_CLEAR_HC_INT(ch_num, USB_OTG_HCINT_DTERR);
 1416              		.loc 1 1212 5 view .LVU415
1212:Drivers/STM32F4xx_HAL_Driver/Src/stm32f4xx_hal_hcd.c ****     __HAL_HCD_CLEAR_HC_INT(ch_num, USB_OTG_HCINT_DTERR);
 1417              		.loc 1 1212 28 is_stmt 0 view .LVU416
 1418 00f6 04EB8403 		add	r3, r4, r4, lsl #2
 1419 00fa 06EBC303 		add	r3, r6, r3, lsl #3
 1420 00fe 0822     		movs	r2, #8
 1421 0100 83F85D20 		strb	r2, [r3, #93]
1213:Drivers/STM32F4xx_HAL_Driver/Src/stm32f4xx_hal_hcd.c ****   }
 1422              		.loc 1 1213 5 is_stmt 1 view .LVU417
 1423 0104 4FF48063 		mov	r3, #1024
 1424 0108 AB60     		str	r3, [r5, #8]
 1425 010a 8BE7     		b	.L81
 1426              	.LVL103:
 1427              	.L110:
1201:Drivers/STM32F4xx_HAL_Driver/Src/stm32f4xx_hal_hcd.c ****     hhcd->hc[ch_num].state = HC_STALL;
 1428              		.loc 1 1201 5 view .LVU418
 1429 010c EB68     		ldr	r3, [r5, #12]
 1430 010e 43F00203 		orr	r3, r3, #2
 1431 0112 EB60     		str	r3, [r5, #12]
 1432              	.LVL104:
1202:Drivers/STM32F4xx_HAL_Driver/Src/stm32f4xx_hal_hcd.c ****     __HAL_HCD_CLEAR_HC_INT(ch_num, USB_OTG_HCINT_NAK);
 1433              		.loc 1 1202 5 view .LVU419
1202:Drivers/STM32F4xx_HAL_Driver/Src/stm32f4xx_hal_hcd.c ****     __HAL_HCD_CLEAR_HC_INT(ch_num, USB_OTG_HCINT_NAK);
 1434              		.loc 1 1202 28 is_stmt 0 view .LVU420
 1435 0114 01EB8103 		add	r3, r1, r1, lsl #2
 1436 0118 00EBC303 		add	r3, r0, r3, lsl #3
 1437 011c 0522     		movs	r2, #5
 1438 011e 83F85D20 		strb	r2, [r3, #93]
1203:Drivers/STM32F4xx_HAL_Driver/Src/stm32f4xx_hal_hcd.c ****     __HAL_HCD_CLEAR_HC_INT(ch_num, USB_OTG_HCINT_STALL);
 1439              		.loc 1 1203 5 is_stmt 1 view .LVU421
 1440 0122 1023     		movs	r3, #16
 1441 0124 AB60     		str	r3, [r5, #8]
1204:Drivers/STM32F4xx_HAL_Driver/Src/stm32f4xx_hal_hcd.c ****     (void)USB_HC_Halt(hhcd->Instance, (uint8_t)ch_num);
 1442              		.loc 1 1204 5 view .LVU422
ARM GAS  /tmp/ccJjbwbP.s 			page 61


 1443 0126 0823     		movs	r3, #8
 1444 0128 AB60     		str	r3, [r5, #8]
1205:Drivers/STM32F4xx_HAL_Driver/Src/stm32f4xx_hal_hcd.c ****   }
 1445              		.loc 1 1205 5 view .LVU423
1205:Drivers/STM32F4xx_HAL_Driver/Src/stm32f4xx_hal_hcd.c ****   }
 1446              		.loc 1 1205 11 is_stmt 0 view .LVU424
 1447 012a 0068     		ldr	r0, [r0]
 1448              	.LVL105:
1205:Drivers/STM32F4xx_HAL_Driver/Src/stm32f4xx_hal_hcd.c ****   }
 1449              		.loc 1 1205 11 view .LVU425
 1450 012c FFF7FEFF 		bl	USB_HC_Halt
 1451              	.LVL106:
1205:Drivers/STM32F4xx_HAL_Driver/Src/stm32f4xx_hal_hcd.c ****   }
 1452              		.loc 1 1205 11 view .LVU426
 1453 0130 78E7     		b	.L81
 1454              	.L107:
1222:Drivers/STM32F4xx_HAL_Driver/Src/stm32f4xx_hal_hcd.c ****     (void)USB_HC_Halt(hhcd->Instance, (uint8_t)ch_num);
 1455              		.loc 1 1222 5 is_stmt 1 view .LVU427
 1456 0132 EB68     		ldr	r3, [r5, #12]
 1457 0134 43F00203 		orr	r3, r3, #2
 1458 0138 EB60     		str	r3, [r5, #12]
1223:Drivers/STM32F4xx_HAL_Driver/Src/stm32f4xx_hal_hcd.c ****     __HAL_HCD_CLEAR_HC_INT(ch_num, USB_OTG_HCINT_FRMOR);
 1459              		.loc 1 1223 5 view .LVU428
1223:Drivers/STM32F4xx_HAL_Driver/Src/stm32f4xx_hal_hcd.c ****     __HAL_HCD_CLEAR_HC_INT(ch_num, USB_OTG_HCINT_FRMOR);
 1460              		.loc 1 1223 11 is_stmt 0 view .LVU429
 1461 013a 2146     		mov	r1, r4
 1462 013c 3068     		ldr	r0, [r6]
 1463 013e FFF7FEFF 		bl	USB_HC_Halt
 1464              	.LVL107:
1224:Drivers/STM32F4xx_HAL_Driver/Src/stm32f4xx_hal_hcd.c ****   }
 1465              		.loc 1 1224 5 is_stmt 1 view .LVU430
 1466 0142 4FF40073 		mov	r3, #512
 1467 0146 AB60     		str	r3, [r5, #8]
 1468 0148 13E0     		b	.L79
 1469              	.L89:
1241:Drivers/STM32F4xx_HAL_Driver/Src/stm32f4xx_hal_hcd.c ****       (void)USB_HC_Halt(hhcd->Instance, (uint8_t)ch_num);
 1470              		.loc 1 1241 7 view .LVU431
 1471 014a EB68     		ldr	r3, [r5, #12]
 1472 014c 43F00203 		orr	r3, r3, #2
 1473 0150 EB60     		str	r3, [r5, #12]
1242:Drivers/STM32F4xx_HAL_Driver/Src/stm32f4xx_hal_hcd.c ****       __HAL_HCD_CLEAR_HC_INT(ch_num, USB_OTG_HCINT_NAK);
 1474              		.loc 1 1242 7 view .LVU432
1242:Drivers/STM32F4xx_HAL_Driver/Src/stm32f4xx_hal_hcd.c ****       __HAL_HCD_CLEAR_HC_INT(ch_num, USB_OTG_HCINT_NAK);
 1475              		.loc 1 1242 13 is_stmt 0 view .LVU433
 1476 0152 2146     		mov	r1, r4
 1477 0154 3068     		ldr	r0, [r6]
 1478 0156 FFF7FEFF 		bl	USB_HC_Halt
 1479              	.LVL108:
1243:Drivers/STM32F4xx_HAL_Driver/Src/stm32f4xx_hal_hcd.c ****     }
 1480              		.loc 1 1243 7 is_stmt 1 view .LVU434
 1481 015a 1023     		movs	r3, #16
 1482 015c AB60     		str	r3, [r5, #8]
 1483              	.L91:
1270:Drivers/STM32F4xx_HAL_Driver/Src/stm32f4xx_hal_hcd.c ****     hhcd->hc[ch_num].toggle_in ^= 1U;
 1484              		.loc 1 1270 5 view .LVU435
1271:Drivers/STM32F4xx_HAL_Driver/Src/stm32f4xx_hal_hcd.c **** 
 1485              		.loc 1 1271 5 view .LVU436
ARM GAS  /tmp/ccJjbwbP.s 			page 62


1271:Drivers/STM32F4xx_HAL_Driver/Src/stm32f4xx_hal_hcd.c **** 
 1486              		.loc 1 1271 32 is_stmt 0 view .LVU437
 1487 015e 04EB8403 		add	r3, r4, r4, lsl #2
 1488 0162 06EBC303 		add	r3, r6, r3, lsl #3
 1489 0166 93F85020 		ldrb	r2, [r3, #80]	@ zero_extendqisi2
 1490 016a 82F00102 		eor	r2, r2, #1
 1491 016e 83F85020 		strb	r2, [r3, #80]
 1492              	.L79:
1365:Drivers/STM32F4xx_HAL_Driver/Src/stm32f4xx_hal_hcd.c **** 
 1493              		.loc 1 1365 1 view .LVU438
 1494 0172 F8BD     		pop	{r3, r4, r5, r6, r7, pc}
 1495              	.LVL109:
 1496              	.L108:
1247:Drivers/STM32F4xx_HAL_Driver/Src/stm32f4xx_hal_hcd.c ****       hhcd->hc[ch_num].urb_state = URB_DONE;
 1497              		.loc 1 1247 7 is_stmt 1 view .LVU439
1247:Drivers/STM32F4xx_HAL_Driver/Src/stm32f4xx_hal_hcd.c ****       hhcd->hc[ch_num].urb_state = URB_DONE;
 1498              		.loc 1 1247 31 is_stmt 0 view .LVU440
 1499 0174 D7F80035 		ldr	r3, [r7, #1280]
 1500 0178 43F00053 		orr	r3, r3, #536870912
 1501 017c C7F80035 		str	r3, [r7, #1280]
1248:Drivers/STM32F4xx_HAL_Driver/Src/stm32f4xx_hal_hcd.c **** 
 1502              		.loc 1 1248 7 is_stmt 1 view .LVU441
1248:Drivers/STM32F4xx_HAL_Driver/Src/stm32f4xx_hal_hcd.c **** 
 1503              		.loc 1 1248 34 is_stmt 0 view .LVU442
 1504 0180 04EB8403 		add	r3, r4, r4, lsl #2
 1505 0184 06EBC303 		add	r3, r6, r3, lsl #3
 1506 0188 0122     		movs	r2, #1
 1507 018a 83F85C20 		strb	r2, [r3, #92]
1253:Drivers/STM32F4xx_HAL_Driver/Src/stm32f4xx_hal_hcd.c **** #endif /* USE_HAL_HCD_REGISTER_CALLBACKS */
 1508              		.loc 1 1253 7 is_stmt 1 view .LVU443
 1509 018e 2146     		mov	r1, r4
 1510 0190 3046     		mov	r0, r6
 1511 0192 FFF7FEFF 		bl	HAL_HCD_HC_NotifyURBChange_Callback
 1512              	.LVL110:
 1513 0196 E2E7     		b	.L91
 1514              	.L87:
1274:Drivers/STM32F4xx_HAL_Driver/Src/stm32f4xx_hal_hcd.c ****   {
 1515              		.loc 1 1274 8 view .LVU444
1274:Drivers/STM32F4xx_HAL_Driver/Src/stm32f4xx_hal_hcd.c ****   {
 1516              		.loc 1 1274 28 is_stmt 0 view .LVU445
 1517 0198 AB68     		ldr	r3, [r5, #8]
1274:Drivers/STM32F4xx_HAL_Driver/Src/stm32f4xx_hal_hcd.c ****   {
 1518              		.loc 1 1274 11 view .LVU446
 1519 019a 13F0020F 		tst	r3, #2
 1520 019e 6CD0     		beq	.L93
1276:Drivers/STM32F4xx_HAL_Driver/Src/stm32f4xx_hal_hcd.c **** 
 1521              		.loc 1 1276 5 is_stmt 1 view .LVU447
 1522 01a0 EB68     		ldr	r3, [r5, #12]
 1523 01a2 23F00203 		bic	r3, r3, #2
 1524 01a6 EB60     		str	r3, [r5, #12]
1278:Drivers/STM32F4xx_HAL_Driver/Src/stm32f4xx_hal_hcd.c ****     {
 1525              		.loc 1 1278 5 view .LVU448
1278:Drivers/STM32F4xx_HAL_Driver/Src/stm32f4xx_hal_hcd.c ****     {
 1526              		.loc 1 1278 25 is_stmt 0 view .LVU449
 1527 01a8 04EB8403 		add	r3, r4, r4, lsl #2
 1528 01ac 06EBC303 		add	r3, r6, r3, lsl #3
 1529 01b0 93F85D30 		ldrb	r3, [r3, #93]	@ zero_extendqisi2
ARM GAS  /tmp/ccJjbwbP.s 			page 63


1278:Drivers/STM32F4xx_HAL_Driver/Src/stm32f4xx_hal_hcd.c ****     {
 1530              		.loc 1 1278 8 view .LVU450
 1531 01b4 012B     		cmp	r3, #1
 1532 01b6 14D0     		beq	.L111
1282:Drivers/STM32F4xx_HAL_Driver/Src/stm32f4xx_hal_hcd.c ****     {
 1533              		.loc 1 1282 10 is_stmt 1 view .LVU451
1282:Drivers/STM32F4xx_HAL_Driver/Src/stm32f4xx_hal_hcd.c ****     {
 1534              		.loc 1 1282 13 is_stmt 0 view .LVU452
 1535 01b8 052B     		cmp	r3, #5
 1536 01ba 26D0     		beq	.L112
1286:Drivers/STM32F4xx_HAL_Driver/Src/stm32f4xx_hal_hcd.c ****              (hhcd->hc[ch_num].state == HC_DATATGLERR))
 1537              		.loc 1 1286 10 is_stmt 1 view .LVU453
1286:Drivers/STM32F4xx_HAL_Driver/Src/stm32f4xx_hal_hcd.c ****              (hhcd->hc[ch_num].state == HC_DATATGLERR))
 1538              		.loc 1 1286 13 is_stmt 0 view .LVU454
 1539 01bc 062B     		cmp	r3, #6
 1540 01be 2CD0     		beq	.L97
1286:Drivers/STM32F4xx_HAL_Driver/Src/stm32f4xx_hal_hcd.c ****              (hhcd->hc[ch_num].state == HC_DATATGLERR))
 1541              		.loc 1 1286 53 discriminator 1 view .LVU455
 1542 01c0 082B     		cmp	r3, #8
 1543 01c2 2AD0     		beq	.L97
1306:Drivers/STM32F4xx_HAL_Driver/Src/stm32f4xx_hal_hcd.c ****     {
 1544              		.loc 1 1306 10 is_stmt 1 view .LVU456
1306:Drivers/STM32F4xx_HAL_Driver/Src/stm32f4xx_hal_hcd.c ****     {
 1545              		.loc 1 1306 13 is_stmt 0 view .LVU457
 1546 01c4 032B     		cmp	r3, #3
 1547 01c6 48D0     		beq	.L113
1315:Drivers/STM32F4xx_HAL_Driver/Src/stm32f4xx_hal_hcd.c ****     {
 1548              		.loc 1 1315 10 is_stmt 1 view .LVU458
1315:Drivers/STM32F4xx_HAL_Driver/Src/stm32f4xx_hal_hcd.c ****     {
 1549              		.loc 1 1315 13 is_stmt 0 view .LVU459
 1550 01c8 072B     		cmp	r3, #7
 1551 01ca 11D1     		bne	.L95
1317:Drivers/STM32F4xx_HAL_Driver/Src/stm32f4xx_hal_hcd.c ****       hhcd->hc[ch_num].urb_state = URB_ERROR;
 1552              		.loc 1 1317 7 is_stmt 1 view .LVU460
1317:Drivers/STM32F4xx_HAL_Driver/Src/stm32f4xx_hal_hcd.c ****       hhcd->hc[ch_num].urb_state = URB_ERROR;
 1553              		.loc 1 1317 23 is_stmt 0 view .LVU461
 1554 01cc 04EB8403 		add	r3, r4, r4, lsl #2
 1555 01d0 06EBC303 		add	r3, r6, r3, lsl #3
 1556 01d4 9A6D     		ldr	r2, [r3, #88]
1317:Drivers/STM32F4xx_HAL_Driver/Src/stm32f4xx_hal_hcd.c ****       hhcd->hc[ch_num].urb_state = URB_ERROR;
 1557              		.loc 1 1317 30 view .LVU462
 1558 01d6 0132     		adds	r2, r2, #1
 1559 01d8 9A65     		str	r2, [r3, #88]
1318:Drivers/STM32F4xx_HAL_Driver/Src/stm32f4xx_hal_hcd.c ****     }
 1560              		.loc 1 1318 7 is_stmt 1 view .LVU463
1318:Drivers/STM32F4xx_HAL_Driver/Src/stm32f4xx_hal_hcd.c ****     }
 1561              		.loc 1 1318 34 is_stmt 0 view .LVU464
 1562 01da 0422     		movs	r2, #4
 1563 01dc 83F85C20 		strb	r2, [r3, #92]
 1564 01e0 06E0     		b	.L95
 1565              	.L111:
1280:Drivers/STM32F4xx_HAL_Driver/Src/stm32f4xx_hal_hcd.c ****     }
 1566              		.loc 1 1280 7 is_stmt 1 view .LVU465
1280:Drivers/STM32F4xx_HAL_Driver/Src/stm32f4xx_hal_hcd.c ****     }
 1567              		.loc 1 1280 35 is_stmt 0 view .LVU466
 1568 01e2 04EB8403 		add	r3, r4, r4, lsl #2
 1569 01e6 06EBC303 		add	r3, r6, r3, lsl #3
ARM GAS  /tmp/ccJjbwbP.s 			page 64


 1570 01ea 0122     		movs	r2, #1
 1571 01ec 83F85C20 		strb	r2, [r3, #92]
 1572              	.L95:
1323:Drivers/STM32F4xx_HAL_Driver/Src/stm32f4xx_hal_hcd.c ****     __HAL_HCD_CLEAR_HC_INT(ch_num, USB_OTG_HCINT_CHH);
 1573              		.loc 1 1323 5 is_stmt 1 view .LVU467
1324:Drivers/STM32F4xx_HAL_Driver/Src/stm32f4xx_hal_hcd.c ****     HAL_HCD_HC_NotifyURBChange_Callback(hhcd, (uint8_t)ch_num, hhcd->hc[ch_num].urb_state);
 1574              		.loc 1 1324 5 view .LVU468
 1575 01f0 0223     		movs	r3, #2
 1576 01f2 AB60     		str	r3, [r5, #8]
1325:Drivers/STM32F4xx_HAL_Driver/Src/stm32f4xx_hal_hcd.c ****   }
 1577              		.loc 1 1325 5 view .LVU469
 1578 01f4 04EB8403 		add	r3, r4, r4, lsl #2
 1579 01f8 06EBC303 		add	r3, r6, r3, lsl #3
 1580 01fc 93F85C20 		ldrb	r2, [r3, #92]	@ zero_extendqisi2
 1581 0200 2146     		mov	r1, r4
 1582 0202 3046     		mov	r0, r6
 1583 0204 FFF7FEFF 		bl	HAL_HCD_HC_NotifyURBChange_Callback
 1584              	.LVL111:
 1585 0208 B3E7     		b	.L79
 1586              	.L112:
1284:Drivers/STM32F4xx_HAL_Driver/Src/stm32f4xx_hal_hcd.c ****     }
 1587              		.loc 1 1284 7 view .LVU470
1284:Drivers/STM32F4xx_HAL_Driver/Src/stm32f4xx_hal_hcd.c ****     }
 1588              		.loc 1 1284 35 is_stmt 0 view .LVU471
 1589 020a 04EB8403 		add	r3, r4, r4, lsl #2
 1590 020e 06EBC303 		add	r3, r6, r3, lsl #3
 1591 0212 0522     		movs	r2, #5
 1592 0214 83F85C20 		strb	r2, [r3, #92]
 1593 0218 EAE7     		b	.L95
 1594              	.L97:
1289:Drivers/STM32F4xx_HAL_Driver/Src/stm32f4xx_hal_hcd.c ****       if (hhcd->hc[ch_num].ErrCnt > 3U)
 1595              		.loc 1 1289 7 is_stmt 1 view .LVU472
1289:Drivers/STM32F4xx_HAL_Driver/Src/stm32f4xx_hal_hcd.c ****       if (hhcd->hc[ch_num].ErrCnt > 3U)
 1596              		.loc 1 1289 23 is_stmt 0 view .LVU473
 1597 021a 04EB8402 		add	r2, r4, r4, lsl #2
 1598 021e 06EBC202 		add	r2, r6, r2, lsl #3
 1599 0222 936D     		ldr	r3, [r2, #88]
1289:Drivers/STM32F4xx_HAL_Driver/Src/stm32f4xx_hal_hcd.c ****       if (hhcd->hc[ch_num].ErrCnt > 3U)
 1600              		.loc 1 1289 30 view .LVU474
 1601 0224 0133     		adds	r3, r3, #1
 1602 0226 9365     		str	r3, [r2, #88]
1290:Drivers/STM32F4xx_HAL_Driver/Src/stm32f4xx_hal_hcd.c ****       {
 1603              		.loc 1 1290 7 is_stmt 1 view .LVU475
1290:Drivers/STM32F4xx_HAL_Driver/Src/stm32f4xx_hal_hcd.c ****       {
 1604              		.loc 1 1290 10 is_stmt 0 view .LVU476
 1605 0228 032B     		cmp	r3, #3
 1606 022a 0ED9     		bls	.L99
1292:Drivers/STM32F4xx_HAL_Driver/Src/stm32f4xx_hal_hcd.c ****         hhcd->hc[ch_num].urb_state = URB_ERROR;
 1607              		.loc 1 1292 9 is_stmt 1 view .LVU477
1292:Drivers/STM32F4xx_HAL_Driver/Src/stm32f4xx_hal_hcd.c ****         hhcd->hc[ch_num].urb_state = URB_ERROR;
 1608              		.loc 1 1292 33 is_stmt 0 view .LVU478
 1609 022c 1346     		mov	r3, r2
 1610 022e 0022     		movs	r2, #0
 1611 0230 9A65     		str	r2, [r3, #88]
1293:Drivers/STM32F4xx_HAL_Driver/Src/stm32f4xx_hal_hcd.c ****       }
 1612              		.loc 1 1293 9 is_stmt 1 view .LVU479
1293:Drivers/STM32F4xx_HAL_Driver/Src/stm32f4xx_hal_hcd.c ****       }
ARM GAS  /tmp/ccJjbwbP.s 			page 65


 1613              		.loc 1 1293 36 is_stmt 0 view .LVU480
 1614 0232 0422     		movs	r2, #4
 1615 0234 83F85C20 		strb	r2, [r3, #92]
 1616              	.L100:
1301:Drivers/STM32F4xx_HAL_Driver/Src/stm32f4xx_hal_hcd.c ****       tmpreg &= ~USB_OTG_HCCHAR_CHDIS;
 1617              		.loc 1 1301 7 is_stmt 1 view .LVU481
1301:Drivers/STM32F4xx_HAL_Driver/Src/stm32f4xx_hal_hcd.c ****       tmpreg &= ~USB_OTG_HCCHAR_CHDIS;
 1618              		.loc 1 1301 14 is_stmt 0 view .LVU482
 1619 0238 D7F80035 		ldr	r3, [r7, #1280]
 1620              	.LVL112:
1302:Drivers/STM32F4xx_HAL_Driver/Src/stm32f4xx_hal_hcd.c ****       tmpreg |= USB_OTG_HCCHAR_CHENA;
 1621              		.loc 1 1302 7 is_stmt 1 view .LVU483
1302:Drivers/STM32F4xx_HAL_Driver/Src/stm32f4xx_hal_hcd.c ****       tmpreg |= USB_OTG_HCCHAR_CHENA;
 1622              		.loc 1 1302 14 is_stmt 0 view .LVU484
 1623 023c 23F08043 		bic	r3, r3, #1073741824
 1624              	.LVL113:
1303:Drivers/STM32F4xx_HAL_Driver/Src/stm32f4xx_hal_hcd.c ****       USBx_HC(ch_num)->HCCHAR = tmpreg;
 1625              		.loc 1 1303 7 is_stmt 1 view .LVU485
1303:Drivers/STM32F4xx_HAL_Driver/Src/stm32f4xx_hal_hcd.c ****       USBx_HC(ch_num)->HCCHAR = tmpreg;
 1626              		.loc 1 1303 14 is_stmt 0 view .LVU486
 1627 0240 43F00043 		orr	r3, r3, #-2147483648
 1628              	.LVL114:
1304:Drivers/STM32F4xx_HAL_Driver/Src/stm32f4xx_hal_hcd.c ****     }
 1629              		.loc 1 1304 7 is_stmt 1 view .LVU487
1304:Drivers/STM32F4xx_HAL_Driver/Src/stm32f4xx_hal_hcd.c ****     }
 1630              		.loc 1 1304 31 is_stmt 0 view .LVU488
 1631 0244 C7F80035 		str	r3, [r7, #1280]
 1632 0248 D2E7     		b	.L95
 1633              	.LVL115:
 1634              	.L99:
1297:Drivers/STM32F4xx_HAL_Driver/Src/stm32f4xx_hal_hcd.c ****       }
 1635              		.loc 1 1297 9 is_stmt 1 view .LVU489
1297:Drivers/STM32F4xx_HAL_Driver/Src/stm32f4xx_hal_hcd.c ****       }
 1636              		.loc 1 1297 36 is_stmt 0 view .LVU490
 1637 024a 04EB8403 		add	r3, r4, r4, lsl #2
 1638 024e 06EBC303 		add	r3, r6, r3, lsl #3
 1639 0252 0222     		movs	r2, #2
 1640 0254 83F85C20 		strb	r2, [r3, #92]
 1641 0258 EEE7     		b	.L100
 1642              	.L113:
1308:Drivers/STM32F4xx_HAL_Driver/Src/stm32f4xx_hal_hcd.c ****       /* re-activate the channel  */
 1643              		.loc 1 1308 7 is_stmt 1 view .LVU491
1308:Drivers/STM32F4xx_HAL_Driver/Src/stm32f4xx_hal_hcd.c ****       /* re-activate the channel  */
 1644              		.loc 1 1308 35 is_stmt 0 view .LVU492
 1645 025a 04EB8403 		add	r3, r4, r4, lsl #2
 1646 025e 06EBC303 		add	r3, r6, r3, lsl #3
 1647 0262 0222     		movs	r2, #2
 1648 0264 83F85C20 		strb	r2, [r3, #92]
1310:Drivers/STM32F4xx_HAL_Driver/Src/stm32f4xx_hal_hcd.c ****       tmpreg &= ~USB_OTG_HCCHAR_CHDIS;
 1649              		.loc 1 1310 7 is_stmt 1 view .LVU493
1310:Drivers/STM32F4xx_HAL_Driver/Src/stm32f4xx_hal_hcd.c ****       tmpreg &= ~USB_OTG_HCCHAR_CHDIS;
 1650              		.loc 1 1310 14 is_stmt 0 view .LVU494
 1651 0268 D7F80035 		ldr	r3, [r7, #1280]
 1652              	.LVL116:
1311:Drivers/STM32F4xx_HAL_Driver/Src/stm32f4xx_hal_hcd.c ****       tmpreg |= USB_OTG_HCCHAR_CHENA;
 1653              		.loc 1 1311 7 is_stmt 1 view .LVU495
1311:Drivers/STM32F4xx_HAL_Driver/Src/stm32f4xx_hal_hcd.c ****       tmpreg |= USB_OTG_HCCHAR_CHENA;
ARM GAS  /tmp/ccJjbwbP.s 			page 66


 1654              		.loc 1 1311 14 is_stmt 0 view .LVU496
 1655 026c 23F08043 		bic	r3, r3, #1073741824
 1656              	.LVL117:
1312:Drivers/STM32F4xx_HAL_Driver/Src/stm32f4xx_hal_hcd.c ****       USBx_HC(ch_num)->HCCHAR = tmpreg;
 1657              		.loc 1 1312 7 is_stmt 1 view .LVU497
1312:Drivers/STM32F4xx_HAL_Driver/Src/stm32f4xx_hal_hcd.c ****       USBx_HC(ch_num)->HCCHAR = tmpreg;
 1658              		.loc 1 1312 14 is_stmt 0 view .LVU498
 1659 0270 43F00043 		orr	r3, r3, #-2147483648
 1660              	.LVL118:
1313:Drivers/STM32F4xx_HAL_Driver/Src/stm32f4xx_hal_hcd.c ****     }
 1661              		.loc 1 1313 7 is_stmt 1 view .LVU499
1313:Drivers/STM32F4xx_HAL_Driver/Src/stm32f4xx_hal_hcd.c ****     }
 1662              		.loc 1 1313 31 is_stmt 0 view .LVU500
 1663 0274 C7F80035 		str	r3, [r7, #1280]
 1664 0278 BAE7     		b	.L95
 1665              	.LVL119:
 1666              	.L93:
1327:Drivers/STM32F4xx_HAL_Driver/Src/stm32f4xx_hal_hcd.c ****   {
 1667              		.loc 1 1327 8 is_stmt 1 view .LVU501
1327:Drivers/STM32F4xx_HAL_Driver/Src/stm32f4xx_hal_hcd.c ****   {
 1668              		.loc 1 1327 28 is_stmt 0 view .LVU502
 1669 027a AB68     		ldr	r3, [r5, #8]
1327:Drivers/STM32F4xx_HAL_Driver/Src/stm32f4xx_hal_hcd.c ****   {
 1670              		.loc 1 1327 11 view .LVU503
 1671 027c 13F0800F 		tst	r3, #128
 1672 0280 1AD1     		bne	.L114
1335:Drivers/STM32F4xx_HAL_Driver/Src/stm32f4xx_hal_hcd.c ****   {
 1673              		.loc 1 1335 8 is_stmt 1 view .LVU504
1335:Drivers/STM32F4xx_HAL_Driver/Src/stm32f4xx_hal_hcd.c ****   {
 1674              		.loc 1 1335 28 is_stmt 0 view .LVU505
 1675 0282 AB68     		ldr	r3, [r5, #8]
1335:Drivers/STM32F4xx_HAL_Driver/Src/stm32f4xx_hal_hcd.c ****   {
 1676              		.loc 1 1335 11 view .LVU506
 1677 0284 13F0100F 		tst	r3, #16
 1678 0288 3FF473AF 		beq	.L79
1337:Drivers/STM32F4xx_HAL_Driver/Src/stm32f4xx_hal_hcd.c ****     {
 1679              		.loc 1 1337 5 is_stmt 1 view .LVU507
1337:Drivers/STM32F4xx_HAL_Driver/Src/stm32f4xx_hal_hcd.c ****     {
 1680              		.loc 1 1337 25 is_stmt 0 view .LVU508
 1681 028c 04EB8403 		add	r3, r4, r4, lsl #2
 1682 0290 06EBC303 		add	r3, r6, r3, lsl #3
 1683 0294 93F83F30 		ldrb	r3, [r3, #63]	@ zero_extendqisi2
1337:Drivers/STM32F4xx_HAL_Driver/Src/stm32f4xx_hal_hcd.c ****     {
 1684              		.loc 1 1337 8 view .LVU509
 1685 0298 032B     		cmp	r3, #3
 1686 029a 26D0     		beq	.L115
1343:Drivers/STM32F4xx_HAL_Driver/Src/stm32f4xx_hal_hcd.c ****              (hhcd->hc[ch_num].ep_type == EP_TYPE_BULK))
 1687              		.loc 1 1343 10 is_stmt 1 view .LVU510
1343:Drivers/STM32F4xx_HAL_Driver/Src/stm32f4xx_hal_hcd.c ****              (hhcd->hc[ch_num].ep_type == EP_TYPE_BULK))
 1688              		.loc 1 1343 13 is_stmt 0 view .LVU511
 1689 029c 0BB1     		cbz	r3, .L105
1343:Drivers/STM32F4xx_HAL_Driver/Src/stm32f4xx_hal_hcd.c ****              (hhcd->hc[ch_num].ep_type == EP_TYPE_BULK))
 1690              		.loc 1 1343 57 discriminator 1 view .LVU512
 1691 029e 022B     		cmp	r3, #2
 1692 02a0 07D1     		bne	.L104
 1693              	.L105:
1346:Drivers/STM32F4xx_HAL_Driver/Src/stm32f4xx_hal_hcd.c **** 
ARM GAS  /tmp/ccJjbwbP.s 			page 67


 1694              		.loc 1 1346 7 is_stmt 1 view .LVU513
1346:Drivers/STM32F4xx_HAL_Driver/Src/stm32f4xx_hal_hcd.c **** 
 1695              		.loc 1 1346 31 is_stmt 0 view .LVU514
 1696 02a2 04EB8403 		add	r3, r4, r4, lsl #2
 1697 02a6 06EBC303 		add	r3, r6, r3, lsl #3
 1698 02aa 0022     		movs	r2, #0
 1699 02ac 9A65     		str	r2, [r3, #88]
1348:Drivers/STM32F4xx_HAL_Driver/Src/stm32f4xx_hal_hcd.c ****       {
 1700              		.loc 1 1348 7 is_stmt 1 view .LVU515
1348:Drivers/STM32F4xx_HAL_Driver/Src/stm32f4xx_hal_hcd.c ****       {
 1701              		.loc 1 1348 21 is_stmt 0 view .LVU516
 1702 02ae 3369     		ldr	r3, [r6, #16]
1348:Drivers/STM32F4xx_HAL_Driver/Src/stm32f4xx_hal_hcd.c ****       {
 1703              		.loc 1 1348 10 view .LVU517
 1704 02b0 53B3     		cbz	r3, .L116
 1705              	.L104:
1359:Drivers/STM32F4xx_HAL_Driver/Src/stm32f4xx_hal_hcd.c ****   }
 1706              		.loc 1 1359 5 is_stmt 1 view .LVU518
 1707 02b2 1023     		movs	r3, #16
 1708 02b4 AB60     		str	r3, [r5, #8]
1364:Drivers/STM32F4xx_HAL_Driver/Src/stm32f4xx_hal_hcd.c **** }
 1709              		.loc 1 1364 3 view .LVU519
1365:Drivers/STM32F4xx_HAL_Driver/Src/stm32f4xx_hal_hcd.c **** 
 1710              		.loc 1 1365 1 is_stmt 0 view .LVU520
 1711 02b6 5CE7     		b	.L79
 1712              	.L114:
1329:Drivers/STM32F4xx_HAL_Driver/Src/stm32f4xx_hal_hcd.c ****     hhcd->hc[ch_num].ErrCnt++;
 1713              		.loc 1 1329 5 is_stmt 1 view .LVU521
 1714 02b8 EB68     		ldr	r3, [r5, #12]
 1715 02ba 43F00203 		orr	r3, r3, #2
 1716 02be EB60     		str	r3, [r5, #12]
1330:Drivers/STM32F4xx_HAL_Driver/Src/stm32f4xx_hal_hcd.c ****     hhcd->hc[ch_num].state = HC_XACTERR;
 1717              		.loc 1 1330 5 view .LVU522
1330:Drivers/STM32F4xx_HAL_Driver/Src/stm32f4xx_hal_hcd.c ****     hhcd->hc[ch_num].state = HC_XACTERR;
 1718              		.loc 1 1330 21 is_stmt 0 view .LVU523
 1719 02c0 04EB8403 		add	r3, r4, r4, lsl #2
 1720 02c4 06EBC303 		add	r3, r6, r3, lsl #3
 1721 02c8 9A6D     		ldr	r2, [r3, #88]
1330:Drivers/STM32F4xx_HAL_Driver/Src/stm32f4xx_hal_hcd.c ****     hhcd->hc[ch_num].state = HC_XACTERR;
 1722              		.loc 1 1330 28 view .LVU524
 1723 02ca 0132     		adds	r2, r2, #1
 1724 02cc 9A65     		str	r2, [r3, #88]
1331:Drivers/STM32F4xx_HAL_Driver/Src/stm32f4xx_hal_hcd.c ****     (void)USB_HC_Halt(hhcd->Instance, (uint8_t)ch_num);
 1725              		.loc 1 1331 5 is_stmt 1 view .LVU525
1331:Drivers/STM32F4xx_HAL_Driver/Src/stm32f4xx_hal_hcd.c ****     (void)USB_HC_Halt(hhcd->Instance, (uint8_t)ch_num);
 1726              		.loc 1 1331 28 is_stmt 0 view .LVU526
 1727 02ce 04EB8403 		add	r3, r4, r4, lsl #2
 1728 02d2 06EBC303 		add	r3, r6, r3, lsl #3
 1729 02d6 0622     		movs	r2, #6
 1730 02d8 83F85D20 		strb	r2, [r3, #93]
1332:Drivers/STM32F4xx_HAL_Driver/Src/stm32f4xx_hal_hcd.c ****     __HAL_HCD_CLEAR_HC_INT(ch_num, USB_OTG_HCINT_TXERR);
 1731              		.loc 1 1332 5 is_stmt 1 view .LVU527
1332:Drivers/STM32F4xx_HAL_Driver/Src/stm32f4xx_hal_hcd.c ****     __HAL_HCD_CLEAR_HC_INT(ch_num, USB_OTG_HCINT_TXERR);
 1732              		.loc 1 1332 11 is_stmt 0 view .LVU528
 1733 02dc 2146     		mov	r1, r4
 1734 02de 3068     		ldr	r0, [r6]
 1735 02e0 FFF7FEFF 		bl	USB_HC_Halt
ARM GAS  /tmp/ccJjbwbP.s 			page 68


 1736              	.LVL120:
1333:Drivers/STM32F4xx_HAL_Driver/Src/stm32f4xx_hal_hcd.c ****   }
 1737              		.loc 1 1333 5 is_stmt 1 view .LVU529
 1738 02e4 8023     		movs	r3, #128
 1739 02e6 AB60     		str	r3, [r5, #8]
 1740 02e8 43E7     		b	.L79
 1741              	.L115:
1339:Drivers/STM32F4xx_HAL_Driver/Src/stm32f4xx_hal_hcd.c ****       __HAL_HCD_UNMASK_HALT_HC_INT(ch_num);
 1742              		.loc 1 1339 7 view .LVU530
1339:Drivers/STM32F4xx_HAL_Driver/Src/stm32f4xx_hal_hcd.c ****       __HAL_HCD_UNMASK_HALT_HC_INT(ch_num);
 1743              		.loc 1 1339 31 is_stmt 0 view .LVU531
 1744 02ea 04EB8403 		add	r3, r4, r4, lsl #2
 1745 02ee 06EBC303 		add	r3, r6, r3, lsl #3
 1746 02f2 0022     		movs	r2, #0
 1747 02f4 9A65     		str	r2, [r3, #88]
1340:Drivers/STM32F4xx_HAL_Driver/Src/stm32f4xx_hal_hcd.c ****       (void)USB_HC_Halt(hhcd->Instance, (uint8_t)ch_num);
 1748              		.loc 1 1340 7 is_stmt 1 view .LVU532
 1749 02f6 EB68     		ldr	r3, [r5, #12]
 1750 02f8 43F00203 		orr	r3, r3, #2
 1751 02fc EB60     		str	r3, [r5, #12]
1341:Drivers/STM32F4xx_HAL_Driver/Src/stm32f4xx_hal_hcd.c ****     }
 1752              		.loc 1 1341 7 view .LVU533
1341:Drivers/STM32F4xx_HAL_Driver/Src/stm32f4xx_hal_hcd.c ****     }
 1753              		.loc 1 1341 13 is_stmt 0 view .LVU534
 1754 02fe 2146     		mov	r1, r4
 1755 0300 3068     		ldr	r0, [r6]
 1756 0302 FFF7FEFF 		bl	USB_HC_Halt
 1757              	.LVL121:
 1758 0306 D4E7     		b	.L104
 1759              	.L116:
1350:Drivers/STM32F4xx_HAL_Driver/Src/stm32f4xx_hal_hcd.c ****         __HAL_HCD_UNMASK_HALT_HC_INT(ch_num);
 1760              		.loc 1 1350 9 is_stmt 1 view .LVU535
1350:Drivers/STM32F4xx_HAL_Driver/Src/stm32f4xx_hal_hcd.c ****         __HAL_HCD_UNMASK_HALT_HC_INT(ch_num);
 1761              		.loc 1 1350 32 is_stmt 0 view .LVU536
 1762 0308 04EB8403 		add	r3, r4, r4, lsl #2
 1763 030c 06EBC303 		add	r3, r6, r3, lsl #3
 1764 0310 0322     		movs	r2, #3
 1765 0312 83F85D20 		strb	r2, [r3, #93]
1351:Drivers/STM32F4xx_HAL_Driver/Src/stm32f4xx_hal_hcd.c ****         (void)USB_HC_Halt(hhcd->Instance, (uint8_t)ch_num);
 1766              		.loc 1 1351 9 is_stmt 1 view .LVU537
 1767 0316 EB68     		ldr	r3, [r5, #12]
 1768 0318 43F00203 		orr	r3, r3, #2
 1769 031c EB60     		str	r3, [r5, #12]
1352:Drivers/STM32F4xx_HAL_Driver/Src/stm32f4xx_hal_hcd.c ****       }
 1770              		.loc 1 1352 9 view .LVU538
1352:Drivers/STM32F4xx_HAL_Driver/Src/stm32f4xx_hal_hcd.c ****       }
 1771              		.loc 1 1352 15 is_stmt 0 view .LVU539
 1772 031e 2146     		mov	r1, r4
 1773 0320 3068     		ldr	r0, [r6]
 1774 0322 FFF7FEFF 		bl	USB_HC_Halt
 1775              	.LVL122:
 1776 0326 C4E7     		b	.L104
 1777              		.cfi_endproc
 1778              	.LFE154:
 1780              		.section	.text.HCD_HC_OUT_IRQHandler,"ax",%progbits
 1781              		.align	1
 1782              		.syntax unified
ARM GAS  /tmp/ccJjbwbP.s 			page 69


 1783              		.thumb
 1784              		.thumb_func
 1785              		.fpu fpv4-sp-d16
 1787              	HCD_HC_OUT_IRQHandler:
 1788              	.LVL123:
 1789              	.LFB155:
1375:Drivers/STM32F4xx_HAL_Driver/Src/stm32f4xx_hal_hcd.c ****   USB_OTG_GlobalTypeDef *USBx = hhcd->Instance;
 1790              		.loc 1 1375 1 is_stmt 1 view -0
 1791              		.cfi_startproc
 1792              		@ args = 0, pretend = 0, frame = 0
 1793              		@ frame_needed = 0, uses_anonymous_args = 0
1375:Drivers/STM32F4xx_HAL_Driver/Src/stm32f4xx_hal_hcd.c ****   USB_OTG_GlobalTypeDef *USBx = hhcd->Instance;
 1794              		.loc 1 1375 1 is_stmt 0 view .LVU541
 1795 0000 F8B5     		push	{r3, r4, r5, r6, r7, lr}
 1796              	.LCFI20:
 1797              		.cfi_def_cfa_offset 24
 1798              		.cfi_offset 3, -24
 1799              		.cfi_offset 4, -20
 1800              		.cfi_offset 5, -16
 1801              		.cfi_offset 6, -12
 1802              		.cfi_offset 7, -8
 1803              		.cfi_offset 14, -4
1376:Drivers/STM32F4xx_HAL_Driver/Src/stm32f4xx_hal_hcd.c ****   uint32_t USBx_BASE = (uint32_t)USBx;
 1804              		.loc 1 1376 3 is_stmt 1 view .LVU542
1376:Drivers/STM32F4xx_HAL_Driver/Src/stm32f4xx_hal_hcd.c ****   uint32_t USBx_BASE = (uint32_t)USBx;
 1805              		.loc 1 1376 26 is_stmt 0 view .LVU543
 1806 0002 0368     		ldr	r3, [r0]
 1807              	.LVL124:
1377:Drivers/STM32F4xx_HAL_Driver/Src/stm32f4xx_hal_hcd.c ****   uint32_t ch_num = (uint32_t)chnum;
 1808              		.loc 1 1377 3 is_stmt 1 view .LVU544
1378:Drivers/STM32F4xx_HAL_Driver/Src/stm32f4xx_hal_hcd.c ****   uint32_t tmpreg;
 1809              		.loc 1 1378 3 view .LVU545
1379:Drivers/STM32F4xx_HAL_Driver/Src/stm32f4xx_hal_hcd.c **** 
 1810              		.loc 1 1379 3 view .LVU546
1381:Drivers/STM32F4xx_HAL_Driver/Src/stm32f4xx_hal_hcd.c ****   {
 1811              		.loc 1 1381 3 view .LVU547
1381:Drivers/STM32F4xx_HAL_Driver/Src/stm32f4xx_hal_hcd.c ****   {
 1812              		.loc 1 1381 8 is_stmt 0 view .LVU548
 1813 0004 03EB4113 		add	r3, r3, r1, lsl #5
 1814              	.LVL125:
1381:Drivers/STM32F4xx_HAL_Driver/Src/stm32f4xx_hal_hcd.c ****   {
 1815              		.loc 1 1381 8 view .LVU549
 1816 0008 03F5A065 		add	r5, r3, #1280
1381:Drivers/STM32F4xx_HAL_Driver/Src/stm32f4xx_hal_hcd.c ****   {
 1817              		.loc 1 1381 23 view .LVU550
 1818 000c AA68     		ldr	r2, [r5, #8]
1381:Drivers/STM32F4xx_HAL_Driver/Src/stm32f4xx_hal_hcd.c ****   {
 1819              		.loc 1 1381 6 view .LVU551
 1820 000e 12F0040F 		tst	r2, #4
 1821 0012 06D0     		beq	.L118
1383:Drivers/STM32F4xx_HAL_Driver/Src/stm32f4xx_hal_hcd.c ****     __HAL_HCD_UNMASK_HALT_HC_INT(ch_num);
 1822              		.loc 1 1383 5 is_stmt 1 view .LVU552
 1823 0014 0423     		movs	r3, #4
 1824 0016 AB60     		str	r3, [r5, #8]
 1825              	.LVL126:
1384:Drivers/STM32F4xx_HAL_Driver/Src/stm32f4xx_hal_hcd.c ****   }
 1826              		.loc 1 1384 5 view .LVU553
ARM GAS  /tmp/ccJjbwbP.s 			page 70


 1827 0018 EB68     		ldr	r3, [r5, #12]
 1828 001a 43F00203 		orr	r3, r3, #2
 1829 001e EB60     		str	r3, [r5, #12]
 1830              	.LVL127:
 1831              	.L117:
1517:Drivers/STM32F4xx_HAL_Driver/Src/stm32f4xx_hal_hcd.c **** 
 1832              		.loc 1 1517 1 is_stmt 0 view .LVU554
 1833 0020 F8BD     		pop	{r3, r4, r5, r6, r7, pc}
 1834              	.LVL128:
 1835              	.L118:
1517:Drivers/STM32F4xx_HAL_Driver/Src/stm32f4xx_hal_hcd.c **** 
 1836              		.loc 1 1517 1 view .LVU555
 1837 0022 0646     		mov	r6, r0
 1838 0024 0C46     		mov	r4, r1
1386:Drivers/STM32F4xx_HAL_Driver/Src/stm32f4xx_hal_hcd.c ****   {
 1839              		.loc 1 1386 8 is_stmt 1 view .LVU556
1386:Drivers/STM32F4xx_HAL_Driver/Src/stm32f4xx_hal_hcd.c ****   {
 1840              		.loc 1 1386 28 is_stmt 0 view .LVU557
 1841 0026 AA68     		ldr	r2, [r5, #8]
1386:Drivers/STM32F4xx_HAL_Driver/Src/stm32f4xx_hal_hcd.c ****   {
 1842              		.loc 1 1386 11 view .LVU558
 1843 0028 12F0200F 		tst	r2, #32
 1844 002c 1ED0     		beq	.L120
1388:Drivers/STM32F4xx_HAL_Driver/Src/stm32f4xx_hal_hcd.c **** 
 1845              		.loc 1 1388 5 is_stmt 1 view .LVU559
 1846 002e 2023     		movs	r3, #32
 1847 0030 AB60     		str	r3, [r5, #8]
 1848              	.LVL129:
1390:Drivers/STM32F4xx_HAL_Driver/Src/stm32f4xx_hal_hcd.c ****     {
 1849              		.loc 1 1390 5 view .LVU560
1390:Drivers/STM32F4xx_HAL_Driver/Src/stm32f4xx_hal_hcd.c ****     {
 1850              		.loc 1 1390 25 is_stmt 0 view .LVU561
 1851 0032 01EB8103 		add	r3, r1, r1, lsl #2
 1852 0036 00EBC303 		add	r3, r0, r3, lsl #3
 1853 003a 93F83D30 		ldrb	r3, [r3, #61]	@ zero_extendqisi2
1390:Drivers/STM32F4xx_HAL_Driver/Src/stm32f4xx_hal_hcd.c ****     {
 1854              		.loc 1 1390 8 view .LVU562
 1855 003e 012B     		cmp	r3, #1
 1856 0040 EED1     		bne	.L117
1392:Drivers/STM32F4xx_HAL_Driver/Src/stm32f4xx_hal_hcd.c ****       hhcd->hc[ch_num].urb_state  = URB_NOTREADY;
 1857              		.loc 1 1392 7 is_stmt 1 view .LVU563
1392:Drivers/STM32F4xx_HAL_Driver/Src/stm32f4xx_hal_hcd.c ****       hhcd->hc[ch_num].urb_state  = URB_NOTREADY;
 1858              		.loc 1 1392 32 is_stmt 0 view .LVU564
 1859 0042 01EB8103 		add	r3, r1, r1, lsl #2
 1860 0046 00EBC303 		add	r3, r0, r3, lsl #3
 1861 004a 0022     		movs	r2, #0
 1862 004c 83F83D20 		strb	r2, [r3, #61]
1393:Drivers/STM32F4xx_HAL_Driver/Src/stm32f4xx_hal_hcd.c ****       __HAL_HCD_UNMASK_HALT_HC_INT(ch_num);
 1863              		.loc 1 1393 7 is_stmt 1 view .LVU565
1393:Drivers/STM32F4xx_HAL_Driver/Src/stm32f4xx_hal_hcd.c ****       __HAL_HCD_UNMASK_HALT_HC_INT(ch_num);
 1864              		.loc 1 1393 35 is_stmt 0 view .LVU566
 1865 0050 01EB8103 		add	r3, r1, r1, lsl #2
 1866 0054 00EBC303 		add	r3, r0, r3, lsl #3
 1867 0058 0222     		movs	r2, #2
 1868 005a 83F85C20 		strb	r2, [r3, #92]
1394:Drivers/STM32F4xx_HAL_Driver/Src/stm32f4xx_hal_hcd.c ****       (void)USB_HC_Halt(hhcd->Instance, (uint8_t)ch_num);
 1869              		.loc 1 1394 7 is_stmt 1 view .LVU567
ARM GAS  /tmp/ccJjbwbP.s 			page 71


 1870 005e EB68     		ldr	r3, [r5, #12]
 1871 0060 1343     		orrs	r3, r3, r2
 1872 0062 EB60     		str	r3, [r5, #12]
1395:Drivers/STM32F4xx_HAL_Driver/Src/stm32f4xx_hal_hcd.c ****     }
 1873              		.loc 1 1395 7 view .LVU568
1395:Drivers/STM32F4xx_HAL_Driver/Src/stm32f4xx_hal_hcd.c ****     }
 1874              		.loc 1 1395 13 is_stmt 0 view .LVU569
 1875 0064 0068     		ldr	r0, [r0]
 1876              	.LVL130:
1395:Drivers/STM32F4xx_HAL_Driver/Src/stm32f4xx_hal_hcd.c ****     }
 1877              		.loc 1 1395 13 view .LVU570
 1878 0066 FFF7FEFF 		bl	USB_HC_Halt
 1879              	.LVL131:
1395:Drivers/STM32F4xx_HAL_Driver/Src/stm32f4xx_hal_hcd.c ****     }
 1880              		.loc 1 1395 13 view .LVU571
 1881 006a D9E7     		b	.L117
 1882              	.LVL132:
 1883              	.L120:
1398:Drivers/STM32F4xx_HAL_Driver/Src/stm32f4xx_hal_hcd.c ****   {
 1884              		.loc 1 1398 8 is_stmt 1 view .LVU572
1398:Drivers/STM32F4xx_HAL_Driver/Src/stm32f4xx_hal_hcd.c ****   {
 1885              		.loc 1 1398 28 is_stmt 0 view .LVU573
 1886 006c AA68     		ldr	r2, [r5, #8]
1398:Drivers/STM32F4xx_HAL_Driver/Src/stm32f4xx_hal_hcd.c ****   {
 1887              		.loc 1 1398 11 view .LVU574
 1888 006e 12F0400F 		tst	r2, #64
 1889 0072 34D1     		bne	.L138
1407:Drivers/STM32F4xx_HAL_Driver/Src/stm32f4xx_hal_hcd.c ****   {
 1890              		.loc 1 1407 8 is_stmt 1 view .LVU575
1407:Drivers/STM32F4xx_HAL_Driver/Src/stm32f4xx_hal_hcd.c ****   {
 1891              		.loc 1 1407 28 is_stmt 0 view .LVU576
 1892 0074 AA68     		ldr	r2, [r5, #8]
1407:Drivers/STM32F4xx_HAL_Driver/Src/stm32f4xx_hal_hcd.c ****   {
 1893              		.loc 1 1407 11 view .LVU577
 1894 0076 12F4007F 		tst	r2, #512
 1895 007a 4AD1     		bne	.L139
1413:Drivers/STM32F4xx_HAL_Driver/Src/stm32f4xx_hal_hcd.c ****   {
 1896              		.loc 1 1413 8 is_stmt 1 view .LVU578
1413:Drivers/STM32F4xx_HAL_Driver/Src/stm32f4xx_hal_hcd.c ****   {
 1897              		.loc 1 1413 28 is_stmt 0 view .LVU579
 1898 007c AA68     		ldr	r2, [r5, #8]
1413:Drivers/STM32F4xx_HAL_Driver/Src/stm32f4xx_hal_hcd.c ****   {
 1899              		.loc 1 1413 11 view .LVU580
 1900 007e 12F0010F 		tst	r2, #1
 1901 0082 51D1     		bne	.L140
1421:Drivers/STM32F4xx_HAL_Driver/Src/stm32f4xx_hal_hcd.c ****   {
 1902              		.loc 1 1421 8 is_stmt 1 view .LVU581
1421:Drivers/STM32F4xx_HAL_Driver/Src/stm32f4xx_hal_hcd.c ****   {
 1903              		.loc 1 1421 28 is_stmt 0 view .LVU582
 1904 0084 AA68     		ldr	r2, [r5, #8]
1421:Drivers/STM32F4xx_HAL_Driver/Src/stm32f4xx_hal_hcd.c ****   {
 1905              		.loc 1 1421 11 view .LVU583
 1906 0086 12F0080F 		tst	r2, #8
 1907 008a 63D1     		bne	.L141
1428:Drivers/STM32F4xx_HAL_Driver/Src/stm32f4xx_hal_hcd.c ****   {
 1908              		.loc 1 1428 8 is_stmt 1 view .LVU584
1428:Drivers/STM32F4xx_HAL_Driver/Src/stm32f4xx_hal_hcd.c ****   {
ARM GAS  /tmp/ccJjbwbP.s 			page 72


 1909              		.loc 1 1428 28 is_stmt 0 view .LVU585
 1910 008c AA68     		ldr	r2, [r5, #8]
1428:Drivers/STM32F4xx_HAL_Driver/Src/stm32f4xx_hal_hcd.c ****   {
 1911              		.loc 1 1428 11 view .LVU586
 1912 008e 12F0100F 		tst	r2, #16
 1913 0092 70D0     		beq	.L125
1430:Drivers/STM32F4xx_HAL_Driver/Src/stm32f4xx_hal_hcd.c ****     hhcd->hc[ch_num].state = HC_NAK;
 1914              		.loc 1 1430 5 is_stmt 1 view .LVU587
1430:Drivers/STM32F4xx_HAL_Driver/Src/stm32f4xx_hal_hcd.c ****     hhcd->hc[ch_num].state = HC_NAK;
 1915              		.loc 1 1430 29 is_stmt 0 view .LVU588
 1916 0094 01EB8103 		add	r3, r1, r1, lsl #2
 1917 0098 00EBC303 		add	r3, r0, r3, lsl #3
 1918 009c 0022     		movs	r2, #0
 1919 009e 9A65     		str	r2, [r3, #88]
 1920              	.LVL133:
1431:Drivers/STM32F4xx_HAL_Driver/Src/stm32f4xx_hal_hcd.c **** 
 1921              		.loc 1 1431 5 is_stmt 1 view .LVU589
1431:Drivers/STM32F4xx_HAL_Driver/Src/stm32f4xx_hal_hcd.c **** 
 1922              		.loc 1 1431 28 is_stmt 0 view .LVU590
 1923 00a0 0322     		movs	r2, #3
 1924 00a2 83F85D20 		strb	r2, [r3, #93]
1433:Drivers/STM32F4xx_HAL_Driver/Src/stm32f4xx_hal_hcd.c ****     {
 1925              		.loc 1 1433 5 is_stmt 1 view .LVU591
1433:Drivers/STM32F4xx_HAL_Driver/Src/stm32f4xx_hal_hcd.c ****     {
 1926              		.loc 1 1433 25 is_stmt 0 view .LVU592
 1927 00a6 93F83D30 		ldrb	r3, [r3, #61]	@ zero_extendqisi2
1433:Drivers/STM32F4xx_HAL_Driver/Src/stm32f4xx_hal_hcd.c ****     {
 1928              		.loc 1 1433 8 view .LVU593
 1929 00aa 6BB9     		cbnz	r3, .L126
1435:Drivers/STM32F4xx_HAL_Driver/Src/stm32f4xx_hal_hcd.c ****       {
 1930              		.loc 1 1435 7 is_stmt 1 view .LVU594
1435:Drivers/STM32F4xx_HAL_Driver/Src/stm32f4xx_hal_hcd.c ****       {
 1931              		.loc 1 1435 27 is_stmt 0 view .LVU595
 1932 00ac 01EB8103 		add	r3, r1, r1, lsl #2
 1933 00b0 00EBC303 		add	r3, r0, r3, lsl #3
 1934 00b4 93F83C30 		ldrb	r3, [r3, #60]	@ zero_extendqisi2
1435:Drivers/STM32F4xx_HAL_Driver/Src/stm32f4xx_hal_hcd.c ****       {
 1935              		.loc 1 1435 10 view .LVU596
 1936 00b8 33B9     		cbnz	r3, .L126
1437:Drivers/STM32F4xx_HAL_Driver/Src/stm32f4xx_hal_hcd.c ****       }
 1937              		.loc 1 1437 9 is_stmt 1 view .LVU597
1437:Drivers/STM32F4xx_HAL_Driver/Src/stm32f4xx_hal_hcd.c ****       }
 1938              		.loc 1 1437 34 is_stmt 0 view .LVU598
 1939 00ba 01EB8103 		add	r3, r1, r1, lsl #2
 1940 00be 00EBC303 		add	r3, r0, r3, lsl #3
 1941 00c2 0122     		movs	r2, #1
 1942 00c4 83F83D20 		strb	r2, [r3, #61]
 1943              	.L126:
1441:Drivers/STM32F4xx_HAL_Driver/Src/stm32f4xx_hal_hcd.c ****     (void)USB_HC_Halt(hhcd->Instance, (uint8_t)ch_num);
 1944              		.loc 1 1441 5 is_stmt 1 view .LVU599
 1945 00c8 EB68     		ldr	r3, [r5, #12]
 1946 00ca 43F00203 		orr	r3, r3, #2
 1947 00ce EB60     		str	r3, [r5, #12]
1442:Drivers/STM32F4xx_HAL_Driver/Src/stm32f4xx_hal_hcd.c ****     __HAL_HCD_CLEAR_HC_INT(ch_num, USB_OTG_HCINT_NAK);
 1948              		.loc 1 1442 5 view .LVU600
1442:Drivers/STM32F4xx_HAL_Driver/Src/stm32f4xx_hal_hcd.c ****     __HAL_HCD_CLEAR_HC_INT(ch_num, USB_OTG_HCINT_NAK);
 1949              		.loc 1 1442 11 is_stmt 0 view .LVU601
ARM GAS  /tmp/ccJjbwbP.s 			page 73


 1950 00d0 2146     		mov	r1, r4
 1951              	.LVL134:
1442:Drivers/STM32F4xx_HAL_Driver/Src/stm32f4xx_hal_hcd.c ****     __HAL_HCD_CLEAR_HC_INT(ch_num, USB_OTG_HCINT_NAK);
 1952              		.loc 1 1442 11 view .LVU602
 1953 00d2 3068     		ldr	r0, [r6]
 1954              	.LVL135:
1442:Drivers/STM32F4xx_HAL_Driver/Src/stm32f4xx_hal_hcd.c ****     __HAL_HCD_CLEAR_HC_INT(ch_num, USB_OTG_HCINT_NAK);
 1955              		.loc 1 1442 11 view .LVU603
 1956 00d4 FFF7FEFF 		bl	USB_HC_Halt
 1957              	.LVL136:
1443:Drivers/STM32F4xx_HAL_Driver/Src/stm32f4xx_hal_hcd.c ****   }
 1958              		.loc 1 1443 5 is_stmt 1 view .LVU604
 1959 00d8 1023     		movs	r3, #16
 1960 00da AB60     		str	r3, [r5, #8]
 1961 00dc A0E7     		b	.L117
 1962              	.LVL137:
 1963              	.L138:
1400:Drivers/STM32F4xx_HAL_Driver/Src/stm32f4xx_hal_hcd.c ****     hhcd->hc[ch_num].do_ping = 1U;
 1964              		.loc 1 1400 5 view .LVU605
1400:Drivers/STM32F4xx_HAL_Driver/Src/stm32f4xx_hal_hcd.c ****     hhcd->hc[ch_num].do_ping = 1U;
 1965              		.loc 1 1400 28 is_stmt 0 view .LVU606
 1966 00de 01EB8103 		add	r3, r1, r1, lsl #2
 1967 00e2 00EBC303 		add	r3, r0, r3, lsl #3
 1968 00e6 0422     		movs	r2, #4
 1969 00e8 83F85D20 		strb	r2, [r3, #93]
 1970              	.LVL138:
1401:Drivers/STM32F4xx_HAL_Driver/Src/stm32f4xx_hal_hcd.c ****     hhcd->hc[ch_num].ErrCnt = 0U;
 1971              		.loc 1 1401 5 is_stmt 1 view .LVU607
1401:Drivers/STM32F4xx_HAL_Driver/Src/stm32f4xx_hal_hcd.c ****     hhcd->hc[ch_num].ErrCnt = 0U;
 1972              		.loc 1 1401 30 is_stmt 0 view .LVU608
 1973 00ec 0122     		movs	r2, #1
 1974 00ee 83F83D20 		strb	r2, [r3, #61]
1402:Drivers/STM32F4xx_HAL_Driver/Src/stm32f4xx_hal_hcd.c ****     __HAL_HCD_UNMASK_HALT_HC_INT(ch_num);
 1975              		.loc 1 1402 5 is_stmt 1 view .LVU609
1402:Drivers/STM32F4xx_HAL_Driver/Src/stm32f4xx_hal_hcd.c ****     __HAL_HCD_UNMASK_HALT_HC_INT(ch_num);
 1976              		.loc 1 1402 29 is_stmt 0 view .LVU610
 1977 00f2 01EB8103 		add	r3, r1, r1, lsl #2
 1978 00f6 00EBC303 		add	r3, r0, r3, lsl #3
 1979 00fa 0022     		movs	r2, #0
 1980 00fc 9A65     		str	r2, [r3, #88]
1403:Drivers/STM32F4xx_HAL_Driver/Src/stm32f4xx_hal_hcd.c ****     (void)USB_HC_Halt(hhcd->Instance, (uint8_t)ch_num);
 1981              		.loc 1 1403 5 is_stmt 1 view .LVU611
 1982 00fe EB68     		ldr	r3, [r5, #12]
 1983 0100 43F00203 		orr	r3, r3, #2
 1984 0104 EB60     		str	r3, [r5, #12]
1404:Drivers/STM32F4xx_HAL_Driver/Src/stm32f4xx_hal_hcd.c ****     __HAL_HCD_CLEAR_HC_INT(ch_num, USB_OTG_HCINT_NYET);
 1985              		.loc 1 1404 5 view .LVU612
1404:Drivers/STM32F4xx_HAL_Driver/Src/stm32f4xx_hal_hcd.c ****     __HAL_HCD_CLEAR_HC_INT(ch_num, USB_OTG_HCINT_NYET);
 1986              		.loc 1 1404 11 is_stmt 0 view .LVU613
 1987 0106 0068     		ldr	r0, [r0]
 1988              	.LVL139:
1404:Drivers/STM32F4xx_HAL_Driver/Src/stm32f4xx_hal_hcd.c ****     __HAL_HCD_CLEAR_HC_INT(ch_num, USB_OTG_HCINT_NYET);
 1989              		.loc 1 1404 11 view .LVU614
 1990 0108 FFF7FEFF 		bl	USB_HC_Halt
 1991              	.LVL140:
1405:Drivers/STM32F4xx_HAL_Driver/Src/stm32f4xx_hal_hcd.c ****   }
 1992              		.loc 1 1405 5 is_stmt 1 view .LVU615
ARM GAS  /tmp/ccJjbwbP.s 			page 74


 1993 010c 4023     		movs	r3, #64
 1994 010e AB60     		str	r3, [r5, #8]
 1995 0110 86E7     		b	.L117
 1996              	.LVL141:
 1997              	.L139:
1409:Drivers/STM32F4xx_HAL_Driver/Src/stm32f4xx_hal_hcd.c ****     (void)USB_HC_Halt(hhcd->Instance, (uint8_t)ch_num);
 1998              		.loc 1 1409 5 view .LVU616
 1999 0112 EB68     		ldr	r3, [r5, #12]
 2000 0114 43F00203 		orr	r3, r3, #2
 2001 0118 EB60     		str	r3, [r5, #12]
 2002              	.LVL142:
1410:Drivers/STM32F4xx_HAL_Driver/Src/stm32f4xx_hal_hcd.c ****     __HAL_HCD_CLEAR_HC_INT(ch_num, USB_OTG_HCINT_FRMOR);
 2003              		.loc 1 1410 5 view .LVU617
1410:Drivers/STM32F4xx_HAL_Driver/Src/stm32f4xx_hal_hcd.c ****     __HAL_HCD_CLEAR_HC_INT(ch_num, USB_OTG_HCINT_FRMOR);
 2004              		.loc 1 1410 11 is_stmt 0 view .LVU618
 2005 011a 0068     		ldr	r0, [r0]
 2006              	.LVL143:
1410:Drivers/STM32F4xx_HAL_Driver/Src/stm32f4xx_hal_hcd.c ****     __HAL_HCD_CLEAR_HC_INT(ch_num, USB_OTG_HCINT_FRMOR);
 2007              		.loc 1 1410 11 view .LVU619
 2008 011c FFF7FEFF 		bl	USB_HC_Halt
 2009              	.LVL144:
1411:Drivers/STM32F4xx_HAL_Driver/Src/stm32f4xx_hal_hcd.c ****   }
 2010              		.loc 1 1411 5 is_stmt 1 view .LVU620
 2011 0120 4FF40073 		mov	r3, #512
 2012 0124 AB60     		str	r3, [r5, #8]
 2013 0126 7BE7     		b	.L117
 2014              	.LVL145:
 2015              	.L140:
1415:Drivers/STM32F4xx_HAL_Driver/Src/stm32f4xx_hal_hcd.c ****     __HAL_HCD_UNMASK_HALT_HC_INT(ch_num);
 2016              		.loc 1 1415 5 view .LVU621
1415:Drivers/STM32F4xx_HAL_Driver/Src/stm32f4xx_hal_hcd.c ****     __HAL_HCD_UNMASK_HALT_HC_INT(ch_num);
 2017              		.loc 1 1415 29 is_stmt 0 view .LVU622
 2018 0128 8F00     		lsls	r7, r1, #2
 2019 012a 01EB8103 		add	r3, r1, r1, lsl #2
 2020 012e 00EBC303 		add	r3, r0, r3, lsl #3
 2021 0132 0022     		movs	r2, #0
 2022 0134 9A65     		str	r2, [r3, #88]
 2023              	.LVL146:
1416:Drivers/STM32F4xx_HAL_Driver/Src/stm32f4xx_hal_hcd.c ****     (void)USB_HC_Halt(hhcd->Instance, (uint8_t)ch_num);
 2024              		.loc 1 1416 5 is_stmt 1 view .LVU623
 2025 0136 EB68     		ldr	r3, [r5, #12]
 2026 0138 43F00203 		orr	r3, r3, #2
 2027 013c EB60     		str	r3, [r5, #12]
1417:Drivers/STM32F4xx_HAL_Driver/Src/stm32f4xx_hal_hcd.c ****     __HAL_HCD_CLEAR_HC_INT(ch_num, USB_OTG_HCINT_XFRC);
 2028              		.loc 1 1417 5 view .LVU624
1417:Drivers/STM32F4xx_HAL_Driver/Src/stm32f4xx_hal_hcd.c ****     __HAL_HCD_CLEAR_HC_INT(ch_num, USB_OTG_HCINT_XFRC);
 2029              		.loc 1 1417 11 is_stmt 0 view .LVU625
 2030 013e 0068     		ldr	r0, [r0]
 2031              	.LVL147:
1417:Drivers/STM32F4xx_HAL_Driver/Src/stm32f4xx_hal_hcd.c ****     __HAL_HCD_CLEAR_HC_INT(ch_num, USB_OTG_HCINT_XFRC);
 2032              		.loc 1 1417 11 view .LVU626
 2033 0140 FFF7FEFF 		bl	USB_HC_Halt
 2034              	.LVL148:
1418:Drivers/STM32F4xx_HAL_Driver/Src/stm32f4xx_hal_hcd.c ****     hhcd->hc[ch_num].state = HC_XFRC;
 2035              		.loc 1 1418 5 is_stmt 1 view .LVU627
 2036 0144 0123     		movs	r3, #1
 2037 0146 AB60     		str	r3, [r5, #8]
ARM GAS  /tmp/ccJjbwbP.s 			page 75


1419:Drivers/STM32F4xx_HAL_Driver/Src/stm32f4xx_hal_hcd.c ****   }
 2038              		.loc 1 1419 5 view .LVU628
1419:Drivers/STM32F4xx_HAL_Driver/Src/stm32f4xx_hal_hcd.c ****   }
 2039              		.loc 1 1419 28 is_stmt 0 view .LVU629
 2040 0148 3C44     		add	r4, r4, r7
 2041              	.LVL149:
1419:Drivers/STM32F4xx_HAL_Driver/Src/stm32f4xx_hal_hcd.c ****   }
 2042              		.loc 1 1419 28 view .LVU630
 2043 014a 06EBC406 		add	r6, r6, r4, lsl #3
 2044              	.LVL150:
1419:Drivers/STM32F4xx_HAL_Driver/Src/stm32f4xx_hal_hcd.c ****   }
 2045              		.loc 1 1419 28 view .LVU631
 2046 014e 86F85D30 		strb	r3, [r6, #93]
 2047 0152 65E7     		b	.L117
 2048              	.LVL151:
 2049              	.L141:
1423:Drivers/STM32F4xx_HAL_Driver/Src/stm32f4xx_hal_hcd.c ****     __HAL_HCD_UNMASK_HALT_HC_INT(ch_num);
 2050              		.loc 1 1423 5 is_stmt 1 view .LVU632
 2051 0154 0823     		movs	r3, #8
 2052 0156 AB60     		str	r3, [r5, #8]
 2053              	.LVL152:
1424:Drivers/STM32F4xx_HAL_Driver/Src/stm32f4xx_hal_hcd.c ****     (void)USB_HC_Halt(hhcd->Instance, (uint8_t)ch_num);
 2054              		.loc 1 1424 5 view .LVU633
 2055 0158 EB68     		ldr	r3, [r5, #12]
 2056 015a 43F00203 		orr	r3, r3, #2
 2057 015e EB60     		str	r3, [r5, #12]
1425:Drivers/STM32F4xx_HAL_Driver/Src/stm32f4xx_hal_hcd.c ****     hhcd->hc[ch_num].state = HC_STALL;
 2058              		.loc 1 1425 5 view .LVU634
1425:Drivers/STM32F4xx_HAL_Driver/Src/stm32f4xx_hal_hcd.c ****     hhcd->hc[ch_num].state = HC_STALL;
 2059              		.loc 1 1425 11 is_stmt 0 view .LVU635
 2060 0160 0068     		ldr	r0, [r0]
 2061              	.LVL153:
1425:Drivers/STM32F4xx_HAL_Driver/Src/stm32f4xx_hal_hcd.c ****     hhcd->hc[ch_num].state = HC_STALL;
 2062              		.loc 1 1425 11 view .LVU636
 2063 0162 FFF7FEFF 		bl	USB_HC_Halt
 2064              	.LVL154:
1426:Drivers/STM32F4xx_HAL_Driver/Src/stm32f4xx_hal_hcd.c ****   }
 2065              		.loc 1 1426 5 is_stmt 1 view .LVU637
1426:Drivers/STM32F4xx_HAL_Driver/Src/stm32f4xx_hal_hcd.c ****   }
 2066              		.loc 1 1426 28 is_stmt 0 view .LVU638
 2067 0166 04EB8404 		add	r4, r4, r4, lsl #2
 2068              	.LVL155:
1426:Drivers/STM32F4xx_HAL_Driver/Src/stm32f4xx_hal_hcd.c ****   }
 2069              		.loc 1 1426 28 view .LVU639
 2070 016a 06EBC406 		add	r6, r6, r4, lsl #3
 2071              	.LVL156:
1426:Drivers/STM32F4xx_HAL_Driver/Src/stm32f4xx_hal_hcd.c ****   }
 2072              		.loc 1 1426 28 view .LVU640
 2073 016e 0523     		movs	r3, #5
 2074 0170 86F85D30 		strb	r3, [r6, #93]
 2075 0174 54E7     		b	.L117
 2076              	.LVL157:
 2077              	.L125:
1445:Drivers/STM32F4xx_HAL_Driver/Src/stm32f4xx_hal_hcd.c ****   {
 2078              		.loc 1 1445 8 is_stmt 1 view .LVU641
1445:Drivers/STM32F4xx_HAL_Driver/Src/stm32f4xx_hal_hcd.c ****   {
 2079              		.loc 1 1445 28 is_stmt 0 view .LVU642
ARM GAS  /tmp/ccJjbwbP.s 			page 76


 2080 0176 AA68     		ldr	r2, [r5, #8]
1445:Drivers/STM32F4xx_HAL_Driver/Src/stm32f4xx_hal_hcd.c ****   {
 2081              		.loc 1 1445 11 view .LVU643
 2082 0178 12F0800F 		tst	r2, #128
 2083 017c 35D1     		bne	.L142
1452:Drivers/STM32F4xx_HAL_Driver/Src/stm32f4xx_hal_hcd.c ****   {
 2084              		.loc 1 1452 8 is_stmt 1 view .LVU644
1452:Drivers/STM32F4xx_HAL_Driver/Src/stm32f4xx_hal_hcd.c ****   {
 2085              		.loc 1 1452 28 is_stmt 0 view .LVU645
 2086 017e AA68     		ldr	r2, [r5, #8]
1452:Drivers/STM32F4xx_HAL_Driver/Src/stm32f4xx_hal_hcd.c ****   {
 2087              		.loc 1 1452 11 view .LVU646
 2088 0180 12F4806F 		tst	r2, #1024
 2089 0184 42D1     		bne	.L143
1460:Drivers/STM32F4xx_HAL_Driver/Src/stm32f4xx_hal_hcd.c ****   {
 2090              		.loc 1 1460 8 is_stmt 1 view .LVU647
1460:Drivers/STM32F4xx_HAL_Driver/Src/stm32f4xx_hal_hcd.c ****   {
 2091              		.loc 1 1460 28 is_stmt 0 view .LVU648
 2092 0186 AA68     		ldr	r2, [r5, #8]
1460:Drivers/STM32F4xx_HAL_Driver/Src/stm32f4xx_hal_hcd.c ****   {
 2093              		.loc 1 1460 11 view .LVU649
 2094 0188 12F0020F 		tst	r2, #2
 2095 018c 3FF448AF 		beq	.L117
1462:Drivers/STM32F4xx_HAL_Driver/Src/stm32f4xx_hal_hcd.c **** 
 2096              		.loc 1 1462 5 is_stmt 1 view .LVU650
 2097 0190 EA68     		ldr	r2, [r5, #12]
 2098 0192 22F00202 		bic	r2, r2, #2
 2099 0196 EA60     		str	r2, [r5, #12]
 2100              	.LVL158:
1464:Drivers/STM32F4xx_HAL_Driver/Src/stm32f4xx_hal_hcd.c ****     {
 2101              		.loc 1 1464 5 view .LVU651
1464:Drivers/STM32F4xx_HAL_Driver/Src/stm32f4xx_hal_hcd.c ****     {
 2102              		.loc 1 1464 25 is_stmt 0 view .LVU652
 2103 0198 01EB8102 		add	r2, r1, r1, lsl #2
 2104 019c 00EBC202 		add	r2, r0, r2, lsl #3
 2105 01a0 92F85D20 		ldrb	r2, [r2, #93]	@ zero_extendqisi2
1464:Drivers/STM32F4xx_HAL_Driver/Src/stm32f4xx_hal_hcd.c ****     {
 2106              		.loc 1 1464 8 view .LVU653
 2107 01a4 012A     		cmp	r2, #1
 2108 01a6 45D0     		beq	.L144
1473:Drivers/STM32F4xx_HAL_Driver/Src/stm32f4xx_hal_hcd.c ****     {
 2109              		.loc 1 1473 10 is_stmt 1 view .LVU654
1473:Drivers/STM32F4xx_HAL_Driver/Src/stm32f4xx_hal_hcd.c ****     {
 2110              		.loc 1 1473 13 is_stmt 0 view .LVU655
 2111 01a8 032A     		cmp	r2, #3
 2112 01aa 59D0     		beq	.L145
1477:Drivers/STM32F4xx_HAL_Driver/Src/stm32f4xx_hal_hcd.c ****     {
 2113              		.loc 1 1477 10 is_stmt 1 view .LVU656
1477:Drivers/STM32F4xx_HAL_Driver/Src/stm32f4xx_hal_hcd.c ****     {
 2114              		.loc 1 1477 13 is_stmt 0 view .LVU657
 2115 01ac 042A     		cmp	r2, #4
 2116 01ae 6BD0     		beq	.L146
1481:Drivers/STM32F4xx_HAL_Driver/Src/stm32f4xx_hal_hcd.c ****     {
 2117              		.loc 1 1481 10 is_stmt 1 view .LVU658
1481:Drivers/STM32F4xx_HAL_Driver/Src/stm32f4xx_hal_hcd.c ****     {
 2118              		.loc 1 1481 13 is_stmt 0 view .LVU659
 2119 01b0 052A     		cmp	r2, #5
ARM GAS  /tmp/ccJjbwbP.s 			page 77


 2120 01b2 70D0     		beq	.L147
1485:Drivers/STM32F4xx_HAL_Driver/Src/stm32f4xx_hal_hcd.c ****              (hhcd->hc[ch_num].state == HC_DATATGLERR))
 2121              		.loc 1 1485 10 is_stmt 1 view .LVU660
1485:Drivers/STM32F4xx_HAL_Driver/Src/stm32f4xx_hal_hcd.c ****              (hhcd->hc[ch_num].state == HC_DATATGLERR))
 2122              		.loc 1 1485 13 is_stmt 0 view .LVU661
 2123 01b4 062A     		cmp	r2, #6
 2124 01b6 01D0     		beq	.L134
1485:Drivers/STM32F4xx_HAL_Driver/Src/stm32f4xx_hal_hcd.c ****              (hhcd->hc[ch_num].state == HC_DATATGLERR))
 2125              		.loc 1 1485 53 discriminator 1 view .LVU662
 2126 01b8 082A     		cmp	r2, #8
 2127 01ba 58D1     		bne	.L130
 2128              	.L134:
1488:Drivers/STM32F4xx_HAL_Driver/Src/stm32f4xx_hal_hcd.c ****       if (hhcd->hc[ch_num].ErrCnt > 3U)
 2129              		.loc 1 1488 7 is_stmt 1 view .LVU663
1488:Drivers/STM32F4xx_HAL_Driver/Src/stm32f4xx_hal_hcd.c ****       if (hhcd->hc[ch_num].ErrCnt > 3U)
 2130              		.loc 1 1488 23 is_stmt 0 view .LVU664
 2131 01bc 2821     		movs	r1, #40
 2132              	.LVL159:
1488:Drivers/STM32F4xx_HAL_Driver/Src/stm32f4xx_hal_hcd.c ****       if (hhcd->hc[ch_num].ErrCnt > 3U)
 2133              		.loc 1 1488 23 view .LVU665
 2134 01be 01FB0461 		mla	r1, r1, r4, r6
 2135 01c2 8A6D     		ldr	r2, [r1, #88]
1488:Drivers/STM32F4xx_HAL_Driver/Src/stm32f4xx_hal_hcd.c ****       if (hhcd->hc[ch_num].ErrCnt > 3U)
 2136              		.loc 1 1488 30 view .LVU666
 2137 01c4 0132     		adds	r2, r2, #1
 2138 01c6 8A65     		str	r2, [r1, #88]
1489:Drivers/STM32F4xx_HAL_Driver/Src/stm32f4xx_hal_hcd.c ****       {
 2139              		.loc 1 1489 7 is_stmt 1 view .LVU667
1489:Drivers/STM32F4xx_HAL_Driver/Src/stm32f4xx_hal_hcd.c ****       {
 2140              		.loc 1 1489 10 is_stmt 0 view .LVU668
 2141 01c8 032A     		cmp	r2, #3
 2142 01ca 6AD9     		bls	.L135
1491:Drivers/STM32F4xx_HAL_Driver/Src/stm32f4xx_hal_hcd.c ****         hhcd->hc[ch_num].urb_state = URB_ERROR;
 2143              		.loc 1 1491 9 is_stmt 1 view .LVU669
1491:Drivers/STM32F4xx_HAL_Driver/Src/stm32f4xx_hal_hcd.c ****         hhcd->hc[ch_num].urb_state = URB_ERROR;
 2144              		.loc 1 1491 33 is_stmt 0 view .LVU670
 2145 01cc 0A46     		mov	r2, r1
 2146 01ce 0021     		movs	r1, #0
 2147 01d0 9165     		str	r1, [r2, #88]
1492:Drivers/STM32F4xx_HAL_Driver/Src/stm32f4xx_hal_hcd.c ****       }
 2148              		.loc 1 1492 9 is_stmt 1 view .LVU671
1492:Drivers/STM32F4xx_HAL_Driver/Src/stm32f4xx_hal_hcd.c ****       }
 2149              		.loc 1 1492 36 is_stmt 0 view .LVU672
 2150 01d2 0421     		movs	r1, #4
 2151 01d4 82F85C10 		strb	r1, [r2, #92]
 2152              	.L136:
1500:Drivers/STM32F4xx_HAL_Driver/Src/stm32f4xx_hal_hcd.c ****       tmpreg &= ~USB_OTG_HCCHAR_CHDIS;
 2153              		.loc 1 1500 7 is_stmt 1 view .LVU673
1500:Drivers/STM32F4xx_HAL_Driver/Src/stm32f4xx_hal_hcd.c ****       tmpreg &= ~USB_OTG_HCCHAR_CHDIS;
 2154              		.loc 1 1500 14 is_stmt 0 view .LVU674
 2155 01d8 D3F80025 		ldr	r2, [r3, #1280]
 2156              	.LVL160:
1501:Drivers/STM32F4xx_HAL_Driver/Src/stm32f4xx_hal_hcd.c ****       tmpreg |= USB_OTG_HCCHAR_CHENA;
 2157              		.loc 1 1501 7 is_stmt 1 view .LVU675
1501:Drivers/STM32F4xx_HAL_Driver/Src/stm32f4xx_hal_hcd.c ****       tmpreg |= USB_OTG_HCCHAR_CHENA;
 2158              		.loc 1 1501 14 is_stmt 0 view .LVU676
 2159 01dc 22F08042 		bic	r2, r2, #1073741824
ARM GAS  /tmp/ccJjbwbP.s 			page 78


 2160              	.LVL161:
1502:Drivers/STM32F4xx_HAL_Driver/Src/stm32f4xx_hal_hcd.c ****       USBx_HC(ch_num)->HCCHAR = tmpreg;
 2161              		.loc 1 1502 7 is_stmt 1 view .LVU677
1502:Drivers/STM32F4xx_HAL_Driver/Src/stm32f4xx_hal_hcd.c ****       USBx_HC(ch_num)->HCCHAR = tmpreg;
 2162              		.loc 1 1502 14 is_stmt 0 view .LVU678
 2163 01e0 42F00042 		orr	r2, r2, #-2147483648
 2164              	.LVL162:
1503:Drivers/STM32F4xx_HAL_Driver/Src/stm32f4xx_hal_hcd.c ****     }
 2165              		.loc 1 1503 7 is_stmt 1 view .LVU679
1503:Drivers/STM32F4xx_HAL_Driver/Src/stm32f4xx_hal_hcd.c ****     }
 2166              		.loc 1 1503 31 is_stmt 0 view .LVU680
 2167 01e4 C3F80025 		str	r2, [r3, #1280]
 2168 01e8 41E0     		b	.L130
 2169              	.LVL163:
 2170              	.L142:
1447:Drivers/STM32F4xx_HAL_Driver/Src/stm32f4xx_hal_hcd.c ****     (void)USB_HC_Halt(hhcd->Instance, (uint8_t)ch_num);
 2171              		.loc 1 1447 5 is_stmt 1 view .LVU681
 2172 01ea EB68     		ldr	r3, [r5, #12]
 2173 01ec 43F00203 		orr	r3, r3, #2
 2174 01f0 EB60     		str	r3, [r5, #12]
 2175              	.LVL164:
1448:Drivers/STM32F4xx_HAL_Driver/Src/stm32f4xx_hal_hcd.c ****     hhcd->hc[ch_num].state = HC_XACTERR;
 2176              		.loc 1 1448 5 view .LVU682
1448:Drivers/STM32F4xx_HAL_Driver/Src/stm32f4xx_hal_hcd.c ****     hhcd->hc[ch_num].state = HC_XACTERR;
 2177              		.loc 1 1448 11 is_stmt 0 view .LVU683
 2178 01f2 0068     		ldr	r0, [r0]
 2179              	.LVL165:
1448:Drivers/STM32F4xx_HAL_Driver/Src/stm32f4xx_hal_hcd.c ****     hhcd->hc[ch_num].state = HC_XACTERR;
 2180              		.loc 1 1448 11 view .LVU684
 2181 01f4 FFF7FEFF 		bl	USB_HC_Halt
 2182              	.LVL166:
1449:Drivers/STM32F4xx_HAL_Driver/Src/stm32f4xx_hal_hcd.c ****     __HAL_HCD_CLEAR_HC_INT(ch_num, USB_OTG_HCINT_TXERR);
 2183              		.loc 1 1449 5 is_stmt 1 view .LVU685
1449:Drivers/STM32F4xx_HAL_Driver/Src/stm32f4xx_hal_hcd.c ****     __HAL_HCD_CLEAR_HC_INT(ch_num, USB_OTG_HCINT_TXERR);
 2184              		.loc 1 1449 28 is_stmt 0 view .LVU686
 2185 01f8 04EB8404 		add	r4, r4, r4, lsl #2
 2186              	.LVL167:
1449:Drivers/STM32F4xx_HAL_Driver/Src/stm32f4xx_hal_hcd.c ****     __HAL_HCD_CLEAR_HC_INT(ch_num, USB_OTG_HCINT_TXERR);
 2187              		.loc 1 1449 28 view .LVU687
 2188 01fc 06EBC406 		add	r6, r6, r4, lsl #3
 2189              	.LVL168:
1449:Drivers/STM32F4xx_HAL_Driver/Src/stm32f4xx_hal_hcd.c ****     __HAL_HCD_CLEAR_HC_INT(ch_num, USB_OTG_HCINT_TXERR);
 2190              		.loc 1 1449 28 view .LVU688
 2191 0200 0623     		movs	r3, #6
 2192 0202 86F85D30 		strb	r3, [r6, #93]
1450:Drivers/STM32F4xx_HAL_Driver/Src/stm32f4xx_hal_hcd.c ****   }
 2193              		.loc 1 1450 5 is_stmt 1 view .LVU689
 2194 0206 8023     		movs	r3, #128
 2195 0208 AB60     		str	r3, [r5, #8]
 2196 020a 09E7     		b	.L117
 2197              	.LVL169:
 2198              	.L143:
1454:Drivers/STM32F4xx_HAL_Driver/Src/stm32f4xx_hal_hcd.c ****     (void)USB_HC_Halt(hhcd->Instance, (uint8_t)ch_num);
 2199              		.loc 1 1454 5 view .LVU690
 2200 020c EB68     		ldr	r3, [r5, #12]
 2201 020e 43F00203 		orr	r3, r3, #2
 2202 0212 EB60     		str	r3, [r5, #12]
ARM GAS  /tmp/ccJjbwbP.s 			page 79


 2203              	.LVL170:
1455:Drivers/STM32F4xx_HAL_Driver/Src/stm32f4xx_hal_hcd.c ****     __HAL_HCD_CLEAR_HC_INT(ch_num, USB_OTG_HCINT_NAK);
 2204              		.loc 1 1455 5 view .LVU691
1455:Drivers/STM32F4xx_HAL_Driver/Src/stm32f4xx_hal_hcd.c ****     __HAL_HCD_CLEAR_HC_INT(ch_num, USB_OTG_HCINT_NAK);
 2205              		.loc 1 1455 11 is_stmt 0 view .LVU692
 2206 0214 0068     		ldr	r0, [r0]
 2207              	.LVL171:
1455:Drivers/STM32F4xx_HAL_Driver/Src/stm32f4xx_hal_hcd.c ****     __HAL_HCD_CLEAR_HC_INT(ch_num, USB_OTG_HCINT_NAK);
 2208              		.loc 1 1455 11 view .LVU693
 2209 0216 FFF7FEFF 		bl	USB_HC_Halt
 2210              	.LVL172:
1456:Drivers/STM32F4xx_HAL_Driver/Src/stm32f4xx_hal_hcd.c ****     __HAL_HCD_CLEAR_HC_INT(ch_num, USB_OTG_HCINT_DTERR);
 2211              		.loc 1 1456 5 is_stmt 1 view .LVU694
 2212 021a 1023     		movs	r3, #16
 2213 021c AB60     		str	r3, [r5, #8]
1457:Drivers/STM32F4xx_HAL_Driver/Src/stm32f4xx_hal_hcd.c ****     hhcd->hc[ch_num].state = HC_DATATGLERR;
 2214              		.loc 1 1457 5 view .LVU695
 2215 021e 4FF48063 		mov	r3, #1024
 2216 0222 AB60     		str	r3, [r5, #8]
1458:Drivers/STM32F4xx_HAL_Driver/Src/stm32f4xx_hal_hcd.c ****   }
 2217              		.loc 1 1458 5 view .LVU696
1458:Drivers/STM32F4xx_HAL_Driver/Src/stm32f4xx_hal_hcd.c ****   }
 2218              		.loc 1 1458 28 is_stmt 0 view .LVU697
 2219 0224 04EB8404 		add	r4, r4, r4, lsl #2
 2220              	.LVL173:
1458:Drivers/STM32F4xx_HAL_Driver/Src/stm32f4xx_hal_hcd.c ****   }
 2221              		.loc 1 1458 28 view .LVU698
 2222 0228 06EBC406 		add	r6, r6, r4, lsl #3
 2223              	.LVL174:
1458:Drivers/STM32F4xx_HAL_Driver/Src/stm32f4xx_hal_hcd.c ****   }
 2224              		.loc 1 1458 28 view .LVU699
 2225 022c 0823     		movs	r3, #8
 2226 022e 86F85D30 		strb	r3, [r6, #93]
 2227 0232 F5E6     		b	.L117
 2228              	.LVL175:
 2229              	.L144:
1466:Drivers/STM32F4xx_HAL_Driver/Src/stm32f4xx_hal_hcd.c ****       if ((hhcd->hc[ch_num].ep_type == EP_TYPE_BULK) ||
 2230              		.loc 1 1466 7 is_stmt 1 view .LVU700
1466:Drivers/STM32F4xx_HAL_Driver/Src/stm32f4xx_hal_hcd.c ****       if ((hhcd->hc[ch_num].ep_type == EP_TYPE_BULK) ||
 2231              		.loc 1 1466 35 is_stmt 0 view .LVU701
 2232 0234 01EB8103 		add	r3, r1, r1, lsl #2
 2233 0238 00EBC303 		add	r3, r0, r3, lsl #3
 2234 023c 83F85C20 		strb	r2, [r3, #92]
1467:Drivers/STM32F4xx_HAL_Driver/Src/stm32f4xx_hal_hcd.c ****           (hhcd->hc[ch_num].ep_type == EP_TYPE_INTR))
 2235              		.loc 1 1467 7 is_stmt 1 view .LVU702
1467:Drivers/STM32F4xx_HAL_Driver/Src/stm32f4xx_hal_hcd.c ****           (hhcd->hc[ch_num].ep_type == EP_TYPE_INTR))
 2236              		.loc 1 1467 28 is_stmt 0 view .LVU703
 2237 0240 93F83F30 		ldrb	r3, [r3, #63]	@ zero_extendqisi2
1467:Drivers/STM32F4xx_HAL_Driver/Src/stm32f4xx_hal_hcd.c ****           (hhcd->hc[ch_num].ep_type == EP_TYPE_INTR))
 2238              		.loc 1 1467 54 view .LVU704
 2239 0244 023B     		subs	r3, r3, #2
 2240 0246 DBB2     		uxtb	r3, r3
1467:Drivers/STM32F4xx_HAL_Driver/Src/stm32f4xx_hal_hcd.c ****           (hhcd->hc[ch_num].ep_type == EP_TYPE_INTR))
 2241              		.loc 1 1467 10 view .LVU705
 2242 0248 9342     		cmp	r3, r2
 2243 024a 10D8     		bhi	.L130
1470:Drivers/STM32F4xx_HAL_Driver/Src/stm32f4xx_hal_hcd.c ****       }
ARM GAS  /tmp/ccJjbwbP.s 			page 80


 2244              		.loc 1 1470 9 is_stmt 1 view .LVU706
1470:Drivers/STM32F4xx_HAL_Driver/Src/stm32f4xx_hal_hcd.c ****       }
 2245              		.loc 1 1470 37 is_stmt 0 view .LVU707
 2246 024c 2823     		movs	r3, #40
 2247 024e 03FB0103 		mla	r3, r3, r1, r0
 2248 0252 93F85120 		ldrb	r2, [r3, #81]	@ zero_extendqisi2
 2249 0256 82F00102 		eor	r2, r2, #1
 2250 025a 83F85120 		strb	r2, [r3, #81]
 2251 025e 06E0     		b	.L130
 2252              	.L145:
1475:Drivers/STM32F4xx_HAL_Driver/Src/stm32f4xx_hal_hcd.c ****     }
 2253              		.loc 1 1475 7 is_stmt 1 view .LVU708
1475:Drivers/STM32F4xx_HAL_Driver/Src/stm32f4xx_hal_hcd.c ****     }
 2254              		.loc 1 1475 34 is_stmt 0 view .LVU709
 2255 0260 01EB8103 		add	r3, r1, r1, lsl #2
 2256 0264 00EBC303 		add	r3, r0, r3, lsl #3
 2257 0268 0222     		movs	r2, #2
 2258 026a 83F85C20 		strb	r2, [r3, #92]
 2259              	.LVL176:
 2260              	.L130:
1510:Drivers/STM32F4xx_HAL_Driver/Src/stm32f4xx_hal_hcd.c ****     HAL_HCD_HC_NotifyURBChange_Callback(hhcd, (uint8_t)ch_num, hhcd->hc[ch_num].urb_state);
 2261              		.loc 1 1510 5 is_stmt 1 view .LVU710
 2262 026e 0223     		movs	r3, #2
 2263 0270 AB60     		str	r3, [r5, #8]
1511:Drivers/STM32F4xx_HAL_Driver/Src/stm32f4xx_hal_hcd.c ****   }
 2264              		.loc 1 1511 5 view .LVU711
 2265 0272 04EB8403 		add	r3, r4, r4, lsl #2
 2266 0276 06EBC303 		add	r3, r6, r3, lsl #3
 2267 027a 93F85C20 		ldrb	r2, [r3, #92]	@ zero_extendqisi2
 2268 027e 2146     		mov	r1, r4
 2269 0280 3046     		mov	r0, r6
 2270              	.LVL177:
1511:Drivers/STM32F4xx_HAL_Driver/Src/stm32f4xx_hal_hcd.c ****   }
 2271              		.loc 1 1511 5 is_stmt 0 view .LVU712
 2272 0282 FFF7FEFF 		bl	HAL_HCD_HC_NotifyURBChange_Callback
 2273              	.LVL178:
1516:Drivers/STM32F4xx_HAL_Driver/Src/stm32f4xx_hal_hcd.c **** }
 2274              		.loc 1 1516 3 is_stmt 1 view .LVU713
1517:Drivers/STM32F4xx_HAL_Driver/Src/stm32f4xx_hal_hcd.c **** 
 2275              		.loc 1 1517 1 is_stmt 0 view .LVU714
 2276 0286 CBE6     		b	.L117
 2277              	.LVL179:
 2278              	.L146:
1479:Drivers/STM32F4xx_HAL_Driver/Src/stm32f4xx_hal_hcd.c ****     }
 2279              		.loc 1 1479 7 is_stmt 1 view .LVU715
1479:Drivers/STM32F4xx_HAL_Driver/Src/stm32f4xx_hal_hcd.c ****     }
 2280              		.loc 1 1479 35 is_stmt 0 view .LVU716
 2281 0288 2823     		movs	r3, #40
 2282 028a 03FB0103 		mla	r3, r3, r1, r0
 2283 028e 0222     		movs	r2, #2
 2284 0290 83F85C20 		strb	r2, [r3, #92]
 2285 0294 EBE7     		b	.L130
 2286              	.L147:
1483:Drivers/STM32F4xx_HAL_Driver/Src/stm32f4xx_hal_hcd.c ****     }
 2287              		.loc 1 1483 7 is_stmt 1 view .LVU717
1483:Drivers/STM32F4xx_HAL_Driver/Src/stm32f4xx_hal_hcd.c ****     }
 2288              		.loc 1 1483 35 is_stmt 0 view .LVU718
ARM GAS  /tmp/ccJjbwbP.s 			page 81


 2289 0296 2823     		movs	r3, #40
 2290 0298 03FB0103 		mla	r3, r3, r1, r0
 2291 029c 83F85C20 		strb	r2, [r3, #92]
 2292 02a0 E5E7     		b	.L130
 2293              	.LVL180:
 2294              	.L135:
1496:Drivers/STM32F4xx_HAL_Driver/Src/stm32f4xx_hal_hcd.c ****       }
 2295              		.loc 1 1496 9 is_stmt 1 view .LVU719
1496:Drivers/STM32F4xx_HAL_Driver/Src/stm32f4xx_hal_hcd.c ****       }
 2296              		.loc 1 1496 36 is_stmt 0 view .LVU720
 2297 02a2 2822     		movs	r2, #40
 2298 02a4 02FB0462 		mla	r2, r2, r4, r6
 2299 02a8 0221     		movs	r1, #2
 2300 02aa 82F85C10 		strb	r1, [r2, #92]
 2301 02ae 93E7     		b	.L136
 2302              		.cfi_endproc
 2303              	.LFE155:
 2305              		.section	.text.HAL_HCD_IRQHandler,"ax",%progbits
 2306              		.align	1
 2307              		.global	HAL_HCD_IRQHandler
 2308              		.syntax unified
 2309              		.thumb
 2310              		.thumb_func
 2311              		.fpu fpv4-sp-d16
 2313              	HAL_HCD_IRQHandler:
 2314              	.LVL181:
 2315              	.LFB137:
 495:Drivers/STM32F4xx_HAL_Driver/Src/stm32f4xx_hal_hcd.c ****   USB_OTG_GlobalTypeDef *USBx = hhcd->Instance;
 2316              		.loc 1 495 1 is_stmt 1 view -0
 2317              		.cfi_startproc
 2318              		@ args = 0, pretend = 0, frame = 0
 2319              		@ frame_needed = 0, uses_anonymous_args = 0
 495:Drivers/STM32F4xx_HAL_Driver/Src/stm32f4xx_hal_hcd.c ****   USB_OTG_GlobalTypeDef *USBx = hhcd->Instance;
 2320              		.loc 1 495 1 is_stmt 0 view .LVU722
 2321 0000 F8B5     		push	{r3, r4, r5, r6, r7, lr}
 2322              	.LCFI21:
 2323              		.cfi_def_cfa_offset 24
 2324              		.cfi_offset 3, -24
 2325              		.cfi_offset 4, -20
 2326              		.cfi_offset 5, -16
 2327              		.cfi_offset 6, -12
 2328              		.cfi_offset 7, -8
 2329              		.cfi_offset 14, -4
 2330 0002 0446     		mov	r4, r0
 496:Drivers/STM32F4xx_HAL_Driver/Src/stm32f4xx_hal_hcd.c ****   uint32_t USBx_BASE = (uint32_t)USBx;
 2331              		.loc 1 496 3 is_stmt 1 view .LVU723
 496:Drivers/STM32F4xx_HAL_Driver/Src/stm32f4xx_hal_hcd.c ****   uint32_t USBx_BASE = (uint32_t)USBx;
 2332              		.loc 1 496 26 is_stmt 0 view .LVU724
 2333 0004 0568     		ldr	r5, [r0]
 497:Drivers/STM32F4xx_HAL_Driver/Src/stm32f4xx_hal_hcd.c ****   uint32_t i, interrupt;
 2334              		.loc 1 497 3 is_stmt 1 view .LVU725
 2335              	.LVL182:
 498:Drivers/STM32F4xx_HAL_Driver/Src/stm32f4xx_hal_hcd.c **** 
 2336              		.loc 1 498 3 view .LVU726
 501:Drivers/STM32F4xx_HAL_Driver/Src/stm32f4xx_hal_hcd.c ****   {
 2337              		.loc 1 501 3 view .LVU727
 501:Drivers/STM32F4xx_HAL_Driver/Src/stm32f4xx_hal_hcd.c ****   {
ARM GAS  /tmp/ccJjbwbP.s 			page 82


 2338              		.loc 1 501 7 is_stmt 0 view .LVU728
 2339 0006 2846     		mov	r0, r5
 2340              	.LVL183:
 501:Drivers/STM32F4xx_HAL_Driver/Src/stm32f4xx_hal_hcd.c ****   {
 2341              		.loc 1 501 7 view .LVU729
 2342 0008 FFF7FEFF 		bl	USB_GetMode
 2343              	.LVL184:
 501:Drivers/STM32F4xx_HAL_Driver/Src/stm32f4xx_hal_hcd.c ****   {
 2344              		.loc 1 501 6 view .LVU730
 2345 000c 0128     		cmp	r0, #1
 2346 000e 00D0     		beq	.L163
 2347              	.L148:
 600:Drivers/STM32F4xx_HAL_Driver/Src/stm32f4xx_hal_hcd.c **** 
 2348              		.loc 1 600 1 view .LVU731
 2349 0010 F8BD     		pop	{r3, r4, r5, r6, r7, pc}
 2350              	.LVL185:
 2351              	.L163:
 504:Drivers/STM32F4xx_HAL_Driver/Src/stm32f4xx_hal_hcd.c ****     {
 2352              		.loc 1 504 5 is_stmt 1 view .LVU732
 504:Drivers/STM32F4xx_HAL_Driver/Src/stm32f4xx_hal_hcd.c ****     {
 2353              		.loc 1 504 9 is_stmt 0 view .LVU733
 2354 0012 2068     		ldr	r0, [r4]
 2355 0014 FFF7FEFF 		bl	USB_ReadInterrupts
 2356              	.LVL186:
 504:Drivers/STM32F4xx_HAL_Driver/Src/stm32f4xx_hal_hcd.c ****     {
 2357              		.loc 1 504 8 view .LVU734
 2358 0018 0028     		cmp	r0, #0
 2359 001a F9D0     		beq	.L148
 509:Drivers/STM32F4xx_HAL_Driver/Src/stm32f4xx_hal_hcd.c ****     {
 2360              		.loc 1 509 5 is_stmt 1 view .LVU735
 509:Drivers/STM32F4xx_HAL_Driver/Src/stm32f4xx_hal_hcd.c ****     {
 2361              		.loc 1 509 9 is_stmt 0 view .LVU736
 2362 001c 2068     		ldr	r0, [r4]
 2363 001e FFF7FEFF 		bl	USB_ReadInterrupts
 2364              	.LVL187:
 509:Drivers/STM32F4xx_HAL_Driver/Src/stm32f4xx_hal_hcd.c ****     {
 2365              		.loc 1 509 8 view .LVU737
 2366 0022 10F4001F 		tst	r0, #2097152
 2367 0026 03D0     		beq	.L150
 512:Drivers/STM32F4xx_HAL_Driver/Src/stm32f4xx_hal_hcd.c ****     }
 2368              		.loc 1 512 7 is_stmt 1 view .LVU738
 2369 0028 2368     		ldr	r3, [r4]
 2370 002a 4FF40012 		mov	r2, #2097152
 2371 002e 5A61     		str	r2, [r3, #20]
 2372              	.L150:
 515:Drivers/STM32F4xx_HAL_Driver/Src/stm32f4xx_hal_hcd.c ****     {
 2373              		.loc 1 515 5 view .LVU739
 515:Drivers/STM32F4xx_HAL_Driver/Src/stm32f4xx_hal_hcd.c ****     {
 2374              		.loc 1 515 9 is_stmt 0 view .LVU740
 2375 0030 2068     		ldr	r0, [r4]
 2376 0032 FFF7FEFF 		bl	USB_ReadInterrupts
 2377              	.LVL188:
 515:Drivers/STM32F4xx_HAL_Driver/Src/stm32f4xx_hal_hcd.c ****     {
 2378              		.loc 1 515 8 view .LVU741
 2379 0036 10F4801F 		tst	r0, #1048576
 2380 003a 03D0     		beq	.L151
 518:Drivers/STM32F4xx_HAL_Driver/Src/stm32f4xx_hal_hcd.c ****     }
ARM GAS  /tmp/ccJjbwbP.s 			page 83


 2381              		.loc 1 518 7 is_stmt 1 view .LVU742
 2382 003c 2368     		ldr	r3, [r4]
 2383 003e 4FF48012 		mov	r2, #1048576
 2384 0042 5A61     		str	r2, [r3, #20]
 2385              	.L151:
 521:Drivers/STM32F4xx_HAL_Driver/Src/stm32f4xx_hal_hcd.c ****     {
 2386              		.loc 1 521 5 view .LVU743
 521:Drivers/STM32F4xx_HAL_Driver/Src/stm32f4xx_hal_hcd.c ****     {
 2387              		.loc 1 521 9 is_stmt 0 view .LVU744
 2388 0044 2068     		ldr	r0, [r4]
 2389 0046 FFF7FEFF 		bl	USB_ReadInterrupts
 2390              	.LVL189:
 521:Drivers/STM32F4xx_HAL_Driver/Src/stm32f4xx_hal_hcd.c ****     {
 2391              		.loc 1 521 8 view .LVU745
 2392 004a 10F0806F 		tst	r0, #67108864
 2393 004e 03D0     		beq	.L152
 524:Drivers/STM32F4xx_HAL_Driver/Src/stm32f4xx_hal_hcd.c ****     }
 2394              		.loc 1 524 7 is_stmt 1 view .LVU746
 2395 0050 2368     		ldr	r3, [r4]
 2396 0052 4FF08062 		mov	r2, #67108864
 2397 0056 5A61     		str	r2, [r3, #20]
 2398              	.L152:
 527:Drivers/STM32F4xx_HAL_Driver/Src/stm32f4xx_hal_hcd.c ****     {
 2399              		.loc 1 527 5 view .LVU747
 527:Drivers/STM32F4xx_HAL_Driver/Src/stm32f4xx_hal_hcd.c ****     {
 2400              		.loc 1 527 9 is_stmt 0 view .LVU748
 2401 0058 2068     		ldr	r0, [r4]
 2402 005a FFF7FEFF 		bl	USB_ReadInterrupts
 2403              	.LVL190:
 527:Drivers/STM32F4xx_HAL_Driver/Src/stm32f4xx_hal_hcd.c ****     {
 2404              		.loc 1 527 8 view .LVU749
 2405 005e 10F0020F 		tst	r0, #2
 2406 0062 02D0     		beq	.L153
 530:Drivers/STM32F4xx_HAL_Driver/Src/stm32f4xx_hal_hcd.c ****     }
 2407              		.loc 1 530 7 is_stmt 1 view .LVU750
 2408 0064 2368     		ldr	r3, [r4]
 2409 0066 0222     		movs	r2, #2
 2410 0068 5A61     		str	r2, [r3, #20]
 2411              	.L153:
 534:Drivers/STM32F4xx_HAL_Driver/Src/stm32f4xx_hal_hcd.c ****     {
 2412              		.loc 1 534 5 view .LVU751
 534:Drivers/STM32F4xx_HAL_Driver/Src/stm32f4xx_hal_hcd.c ****     {
 2413              		.loc 1 534 9 is_stmt 0 view .LVU752
 2414 006a 2068     		ldr	r0, [r4]
 2415 006c FFF7FEFF 		bl	USB_ReadInterrupts
 2416              	.LVL191:
 534:Drivers/STM32F4xx_HAL_Driver/Src/stm32f4xx_hal_hcd.c ****     {
 2417              		.loc 1 534 8 view .LVU753
 2418 0070 10F0005F 		tst	r0, #536870912
 2419 0074 08D0     		beq	.L154
 536:Drivers/STM32F4xx_HAL_Driver/Src/stm32f4xx_hal_hcd.c **** 
 2420              		.loc 1 536 7 is_stmt 1 view .LVU754
 2421 0076 2368     		ldr	r3, [r4]
 2422 0078 4FF00052 		mov	r2, #536870912
 2423 007c 5A61     		str	r2, [r3, #20]
 538:Drivers/STM32F4xx_HAL_Driver/Src/stm32f4xx_hal_hcd.c ****       {
 2424              		.loc 1 538 7 view .LVU755
ARM GAS  /tmp/ccJjbwbP.s 			page 84


 538:Drivers/STM32F4xx_HAL_Driver/Src/stm32f4xx_hal_hcd.c ****       {
 2425              		.loc 1 538 12 is_stmt 0 view .LVU756
 2426 007e D5F84034 		ldr	r3, [r5, #1088]
 538:Drivers/STM32F4xx_HAL_Driver/Src/stm32f4xx_hal_hcd.c ****       {
 2427              		.loc 1 538 10 view .LVU757
 2428 0082 13F0010F 		tst	r3, #1
 2429 0086 25D0     		beq	.L164
 2430              	.L154:
 552:Drivers/STM32F4xx_HAL_Driver/Src/stm32f4xx_hal_hcd.c ****     {
 2431              		.loc 1 552 5 is_stmt 1 view .LVU758
 552:Drivers/STM32F4xx_HAL_Driver/Src/stm32f4xx_hal_hcd.c ****     {
 2432              		.loc 1 552 9 is_stmt 0 view .LVU759
 2433 0088 2068     		ldr	r0, [r4]
 2434 008a FFF7FEFF 		bl	USB_ReadInterrupts
 2435              	.LVL192:
 552:Drivers/STM32F4xx_HAL_Driver/Src/stm32f4xx_hal_hcd.c ****     {
 2436              		.loc 1 552 8 view .LVU760
 2437 008e 10F0807F 		tst	r0, #16777216
 2438 0092 27D1     		bne	.L165
 2439              	.L155:
 558:Drivers/STM32F4xx_HAL_Driver/Src/stm32f4xx_hal_hcd.c ****     {
 2440              		.loc 1 558 5 is_stmt 1 view .LVU761
 558:Drivers/STM32F4xx_HAL_Driver/Src/stm32f4xx_hal_hcd.c ****     {
 2441              		.loc 1 558 9 is_stmt 0 view .LVU762
 2442 0094 2068     		ldr	r0, [r4]
 2443 0096 FFF7FEFF 		bl	USB_ReadInterrupts
 2444              	.LVL193:
 558:Drivers/STM32F4xx_HAL_Driver/Src/stm32f4xx_hal_hcd.c ****     {
 2445              		.loc 1 558 8 view .LVU763
 2446 009a 10F0080F 		tst	r0, #8
 2447 009e 25D1     		bne	.L166
 2448              	.L156:
 570:Drivers/STM32F4xx_HAL_Driver/Src/stm32f4xx_hal_hcd.c ****     {
 2449              		.loc 1 570 5 is_stmt 1 view .LVU764
 570:Drivers/STM32F4xx_HAL_Driver/Src/stm32f4xx_hal_hcd.c ****     {
 2450              		.loc 1 570 9 is_stmt 0 view .LVU765
 2451 00a0 2068     		ldr	r0, [r4]
 2452 00a2 FFF7FEFF 		bl	USB_ReadInterrupts
 2453              	.LVL194:
 570:Drivers/STM32F4xx_HAL_Driver/Src/stm32f4xx_hal_hcd.c ****     {
 2454              		.loc 1 570 8 view .LVU766
 2455 00a6 10F0007F 		tst	r0, #33554432
 2456 00aa 26D1     		bne	.L167
 2457              	.L157:
 591:Drivers/STM32F4xx_HAL_Driver/Src/stm32f4xx_hal_hcd.c ****     {
 2458              		.loc 1 591 5 is_stmt 1 view .LVU767
 591:Drivers/STM32F4xx_HAL_Driver/Src/stm32f4xx_hal_hcd.c ****     {
 2459              		.loc 1 591 10 is_stmt 0 view .LVU768
 2460 00ac 2068     		ldr	r0, [r4]
 2461 00ae FFF7FEFF 		bl	USB_ReadInterrupts
 2462              	.LVL195:
 591:Drivers/STM32F4xx_HAL_Driver/Src/stm32f4xx_hal_hcd.c ****     {
 2463              		.loc 1 591 60 view .LVU769
 2464 00b2 10F0100F 		tst	r0, #16
 2465 00b6 ABD0     		beq	.L148
 593:Drivers/STM32F4xx_HAL_Driver/Src/stm32f4xx_hal_hcd.c **** 
 2466              		.loc 1 593 7 is_stmt 1 view .LVU770
ARM GAS  /tmp/ccJjbwbP.s 			page 85


 2467 00b8 2268     		ldr	r2, [r4]
 2468 00ba 9369     		ldr	r3, [r2, #24]
 2469 00bc 23F01003 		bic	r3, r3, #16
 2470 00c0 9361     		str	r3, [r2, #24]
 595:Drivers/STM32F4xx_HAL_Driver/Src/stm32f4xx_hal_hcd.c **** 
 2471              		.loc 1 595 7 view .LVU771
 2472 00c2 2046     		mov	r0, r4
 2473 00c4 FFF7FEFF 		bl	HCD_RXQLVL_IRQHandler
 2474              	.LVL196:
 597:Drivers/STM32F4xx_HAL_Driver/Src/stm32f4xx_hal_hcd.c ****     }
 2475              		.loc 1 597 7 view .LVU772
 2476 00c8 2268     		ldr	r2, [r4]
 2477 00ca 9369     		ldr	r3, [r2, #24]
 2478 00cc 43F01003 		orr	r3, r3, #16
 2479 00d0 9361     		str	r3, [r2, #24]
 2480 00d2 9DE7     		b	.L148
 2481              	.L164:
 544:Drivers/STM32F4xx_HAL_Driver/Src/stm32f4xx_hal_hcd.c **** #endif /* USE_HAL_HCD_REGISTER_CALLBACKS */
 2482              		.loc 1 544 9 view .LVU773
 2483 00d4 2046     		mov	r0, r4
 2484 00d6 FFF7FEFF 		bl	HAL_HCD_Disconnect_Callback
 2485              	.LVL197:
 547:Drivers/STM32F4xx_HAL_Driver/Src/stm32f4xx_hal_hcd.c ****       }
 2486              		.loc 1 547 9 view .LVU774
 547:Drivers/STM32F4xx_HAL_Driver/Src/stm32f4xx_hal_hcd.c ****       }
 2487              		.loc 1 547 15 is_stmt 0 view .LVU775
 2488 00da 0121     		movs	r1, #1
 2489 00dc 2068     		ldr	r0, [r4]
 2490 00de FFF7FEFF 		bl	USB_InitFSLSPClkSel
 2491              	.LVL198:
 2492 00e2 D1E7     		b	.L154
 2493              	.L165:
 554:Drivers/STM32F4xx_HAL_Driver/Src/stm32f4xx_hal_hcd.c ****     }
 2494              		.loc 1 554 7 is_stmt 1 view .LVU776
 2495 00e4 2046     		mov	r0, r4
 2496 00e6 FFF7FEFF 		bl	HCD_Port_IRQHandler
 2497              	.LVL199:
 2498 00ea D3E7     		b	.L155
 2499              	.L166:
 563:Drivers/STM32F4xx_HAL_Driver/Src/stm32f4xx_hal_hcd.c **** #endif /* USE_HAL_HCD_REGISTER_CALLBACKS */
 2500              		.loc 1 563 7 view .LVU777
 2501 00ec 2046     		mov	r0, r4
 2502 00ee FFF7FEFF 		bl	HAL_HCD_SOF_Callback
 2503              	.LVL200:
 566:Drivers/STM32F4xx_HAL_Driver/Src/stm32f4xx_hal_hcd.c ****     }
 2504              		.loc 1 566 7 view .LVU778
 2505 00f2 2368     		ldr	r3, [r4]
 2506 00f4 0822     		movs	r2, #8
 2507 00f6 5A61     		str	r2, [r3, #20]
 2508 00f8 D2E7     		b	.L156
 2509              	.L167:
 572:Drivers/STM32F4xx_HAL_Driver/Src/stm32f4xx_hal_hcd.c ****       for (i = 0U; i < hhcd->Init.Host_channels; i++)
 2510              		.loc 1 572 7 view .LVU779
 572:Drivers/STM32F4xx_HAL_Driver/Src/stm32f4xx_hal_hcd.c ****       for (i = 0U; i < hhcd->Init.Host_channels; i++)
 2511              		.loc 1 572 19 is_stmt 0 view .LVU780
 2512 00fa 2068     		ldr	r0, [r4]
 2513 00fc FFF7FEFF 		bl	USB_HC_ReadInterrupt
ARM GAS  /tmp/ccJjbwbP.s 			page 86


 2514              	.LVL201:
 2515 0100 0746     		mov	r7, r0
 2516              	.LVL202:
 573:Drivers/STM32F4xx_HAL_Driver/Src/stm32f4xx_hal_hcd.c ****       {
 2517              		.loc 1 573 7 is_stmt 1 view .LVU781
 573:Drivers/STM32F4xx_HAL_Driver/Src/stm32f4xx_hal_hcd.c ****       {
 2518              		.loc 1 573 14 is_stmt 0 view .LVU782
 2519 0102 0026     		movs	r6, #0
 573:Drivers/STM32F4xx_HAL_Driver/Src/stm32f4xx_hal_hcd.c ****       {
 2520              		.loc 1 573 7 view .LVU783
 2521 0104 04E0     		b	.L158
 2522              	.LVL203:
 2523              	.L160:
 583:Drivers/STM32F4xx_HAL_Driver/Src/stm32f4xx_hal_hcd.c ****           }
 2524              		.loc 1 583 13 is_stmt 1 view .LVU784
 2525 0106 F1B2     		uxtb	r1, r6
 2526 0108 2046     		mov	r0, r4
 2527 010a FFF7FEFF 		bl	HCD_HC_OUT_IRQHandler
 2528              	.LVL204:
 2529              	.L159:
 573:Drivers/STM32F4xx_HAL_Driver/Src/stm32f4xx_hal_hcd.c ****       {
 2530              		.loc 1 573 50 discriminator 2 view .LVU785
 573:Drivers/STM32F4xx_HAL_Driver/Src/stm32f4xx_hal_hcd.c ****       {
 2531              		.loc 1 573 51 is_stmt 0 discriminator 2 view .LVU786
 2532 010e 0136     		adds	r6, r6, #1
 2533              	.LVL205:
 2534              	.L158:
 573:Drivers/STM32F4xx_HAL_Driver/Src/stm32f4xx_hal_hcd.c ****       {
 2535              		.loc 1 573 20 is_stmt 1 discriminator 1 view .LVU787
 573:Drivers/STM32F4xx_HAL_Driver/Src/stm32f4xx_hal_hcd.c ****       {
 2536              		.loc 1 573 34 is_stmt 0 discriminator 1 view .LVU788
 2537 0110 A368     		ldr	r3, [r4, #8]
 573:Drivers/STM32F4xx_HAL_Driver/Src/stm32f4xx_hal_hcd.c ****       {
 2538              		.loc 1 573 7 discriminator 1 view .LVU789
 2539 0112 B342     		cmp	r3, r6
 2540 0114 12D9     		bls	.L168
 575:Drivers/STM32F4xx_HAL_Driver/Src/stm32f4xx_hal_hcd.c ****         {
 2541              		.loc 1 575 9 is_stmt 1 view .LVU790
 575:Drivers/STM32F4xx_HAL_Driver/Src/stm32f4xx_hal_hcd.c ****         {
 2542              		.loc 1 575 37 is_stmt 0 view .LVU791
 2543 0116 06F00F03 		and	r3, r6, #15
 575:Drivers/STM32F4xx_HAL_Driver/Src/stm32f4xx_hal_hcd.c ****         {
 2544              		.loc 1 575 47 view .LVU792
 2545 011a 27FA03F3 		lsr	r3, r7, r3
 575:Drivers/STM32F4xx_HAL_Driver/Src/stm32f4xx_hal_hcd.c ****         {
 2546              		.loc 1 575 12 view .LVU793
 2547 011e 13F0010F 		tst	r3, #1
 2548 0122 F4D0     		beq	.L159
 577:Drivers/STM32F4xx_HAL_Driver/Src/stm32f4xx_hal_hcd.c ****           {
 2549              		.loc 1 577 11 is_stmt 1 view .LVU794
 577:Drivers/STM32F4xx_HAL_Driver/Src/stm32f4xx_hal_hcd.c ****           {
 2550              		.loc 1 577 16 is_stmt 0 view .LVU795
 2551 0124 05EB4613 		add	r3, r5, r6, lsl #5
 577:Drivers/STM32F4xx_HAL_Driver/Src/stm32f4xx_hal_hcd.c ****           {
 2552              		.loc 1 577 26 view .LVU796
 2553 0128 D3F80035 		ldr	r3, [r3, #1280]
 577:Drivers/STM32F4xx_HAL_Driver/Src/stm32f4xx_hal_hcd.c ****           {
ARM GAS  /tmp/ccJjbwbP.s 			page 87


 2554              		.loc 1 577 14 view .LVU797
 2555 012c 13F4004F 		tst	r3, #32768
 2556 0130 E9D0     		beq	.L160
 579:Drivers/STM32F4xx_HAL_Driver/Src/stm32f4xx_hal_hcd.c ****           }
 2557              		.loc 1 579 13 is_stmt 1 view .LVU798
 2558 0132 F1B2     		uxtb	r1, r6
 2559 0134 2046     		mov	r0, r4
 2560 0136 FFF7FEFF 		bl	HCD_HC_IN_IRQHandler
 2561              	.LVL206:
 2562 013a E8E7     		b	.L159
 2563              	.L168:
 587:Drivers/STM32F4xx_HAL_Driver/Src/stm32f4xx_hal_hcd.c ****     }
 2564              		.loc 1 587 7 view .LVU799
 2565 013c 2368     		ldr	r3, [r4]
 2566 013e 4FF00072 		mov	r2, #33554432
 2567 0142 5A61     		str	r2, [r3, #20]
 2568 0144 B2E7     		b	.L157
 2569              		.cfi_endproc
 2570              	.LFE137:
 2572              		.section	.text.HAL_HCD_Start,"ax",%progbits
 2573              		.align	1
 2574              		.global	HAL_HCD_Start
 2575              		.syntax unified
 2576              		.thumb
 2577              		.thumb_func
 2578              		.fpu fpv4-sp-d16
 2580              	HAL_HCD_Start:
 2581              	.LVL207:
 2582              	.LFB145:
1020:Drivers/STM32F4xx_HAL_Driver/Src/stm32f4xx_hal_hcd.c ****   __HAL_LOCK(hhcd);
 2583              		.loc 1 1020 1 view -0
 2584              		.cfi_startproc
 2585              		@ args = 0, pretend = 0, frame = 0
 2586              		@ frame_needed = 0, uses_anonymous_args = 0
1020:Drivers/STM32F4xx_HAL_Driver/Src/stm32f4xx_hal_hcd.c ****   __HAL_LOCK(hhcd);
 2587              		.loc 1 1020 1 is_stmt 0 view .LVU801
 2588 0000 38B5     		push	{r3, r4, r5, lr}
 2589              	.LCFI22:
 2590              		.cfi_def_cfa_offset 16
 2591              		.cfi_offset 3, -16
 2592              		.cfi_offset 4, -12
 2593              		.cfi_offset 5, -8
 2594              		.cfi_offset 14, -4
1021:Drivers/STM32F4xx_HAL_Driver/Src/stm32f4xx_hal_hcd.c ****   __HAL_HCD_ENABLE(hhcd);
 2595              		.loc 1 1021 3 is_stmt 1 view .LVU802
1021:Drivers/STM32F4xx_HAL_Driver/Src/stm32f4xx_hal_hcd.c ****   __HAL_HCD_ENABLE(hhcd);
 2596              		.loc 1 1021 3 view .LVU803
 2597 0002 90F8B832 		ldrb	r3, [r0, #696]	@ zero_extendqisi2
 2598 0006 012B     		cmp	r3, #1
 2599 0008 0ED0     		beq	.L171
 2600 000a 0446     		mov	r4, r0
1021:Drivers/STM32F4xx_HAL_Driver/Src/stm32f4xx_hal_hcd.c ****   __HAL_HCD_ENABLE(hhcd);
 2601              		.loc 1 1021 3 discriminator 2 view .LVU804
 2602 000c 0125     		movs	r5, #1
 2603 000e 80F8B852 		strb	r5, [r0, #696]
1021:Drivers/STM32F4xx_HAL_Driver/Src/stm32f4xx_hal_hcd.c ****   __HAL_HCD_ENABLE(hhcd);
 2604              		.loc 1 1021 3 discriminator 2 view .LVU805
ARM GAS  /tmp/ccJjbwbP.s 			page 88


1022:Drivers/STM32F4xx_HAL_Driver/Src/stm32f4xx_hal_hcd.c ****   (void)USB_DriveVbus(hhcd->Instance, 1U);
 2605              		.loc 1 1022 3 discriminator 2 view .LVU806
 2606 0012 0068     		ldr	r0, [r0]
 2607              	.LVL208:
1022:Drivers/STM32F4xx_HAL_Driver/Src/stm32f4xx_hal_hcd.c ****   (void)USB_DriveVbus(hhcd->Instance, 1U);
 2608              		.loc 1 1022 3 is_stmt 0 discriminator 2 view .LVU807
 2609 0014 FFF7FEFF 		bl	USB_EnableGlobalInt
 2610              	.LVL209:
1023:Drivers/STM32F4xx_HAL_Driver/Src/stm32f4xx_hal_hcd.c ****   __HAL_UNLOCK(hhcd);
 2611              		.loc 1 1023 3 is_stmt 1 discriminator 2 view .LVU808
1023:Drivers/STM32F4xx_HAL_Driver/Src/stm32f4xx_hal_hcd.c ****   __HAL_UNLOCK(hhcd);
 2612              		.loc 1 1023 9 is_stmt 0 discriminator 2 view .LVU809
 2613 0018 2946     		mov	r1, r5
 2614 001a 2068     		ldr	r0, [r4]
 2615 001c FFF7FEFF 		bl	USB_DriveVbus
 2616              	.LVL210:
1024:Drivers/STM32F4xx_HAL_Driver/Src/stm32f4xx_hal_hcd.c **** 
 2617              		.loc 1 1024 3 is_stmt 1 discriminator 2 view .LVU810
1024:Drivers/STM32F4xx_HAL_Driver/Src/stm32f4xx_hal_hcd.c **** 
 2618              		.loc 1 1024 3 discriminator 2 view .LVU811
 2619 0020 0020     		movs	r0, #0
 2620 0022 84F8B802 		strb	r0, [r4, #696]
1024:Drivers/STM32F4xx_HAL_Driver/Src/stm32f4xx_hal_hcd.c **** 
 2621              		.loc 1 1024 3 discriminator 2 view .LVU812
1026:Drivers/STM32F4xx_HAL_Driver/Src/stm32f4xx_hal_hcd.c **** }
 2622              		.loc 1 1026 3 discriminator 2 view .LVU813
 2623              	.LVL211:
 2624              	.L170:
1027:Drivers/STM32F4xx_HAL_Driver/Src/stm32f4xx_hal_hcd.c **** 
 2625              		.loc 1 1027 1 is_stmt 0 view .LVU814
 2626 0026 38BD     		pop	{r3, r4, r5, pc}
 2627              	.LVL212:
 2628              	.L171:
1021:Drivers/STM32F4xx_HAL_Driver/Src/stm32f4xx_hal_hcd.c ****   __HAL_HCD_ENABLE(hhcd);
 2629              		.loc 1 1021 3 view .LVU815
 2630 0028 0220     		movs	r0, #2
 2631              	.LVL213:
1021:Drivers/STM32F4xx_HAL_Driver/Src/stm32f4xx_hal_hcd.c ****   __HAL_HCD_ENABLE(hhcd);
 2632              		.loc 1 1021 3 view .LVU816
 2633 002a FCE7     		b	.L170
 2634              		.cfi_endproc
 2635              	.LFE145:
 2637              		.section	.text.HAL_HCD_Stop,"ax",%progbits
 2638              		.align	1
 2639              		.global	HAL_HCD_Stop
 2640              		.syntax unified
 2641              		.thumb
 2642              		.thumb_func
 2643              		.fpu fpv4-sp-d16
 2645              	HAL_HCD_Stop:
 2646              	.LVL214:
 2647              	.LFB146:
1036:Drivers/STM32F4xx_HAL_Driver/Src/stm32f4xx_hal_hcd.c ****   __HAL_LOCK(hhcd);
 2648              		.loc 1 1036 1 is_stmt 1 view -0
 2649              		.cfi_startproc
 2650              		@ args = 0, pretend = 0, frame = 0
 2651              		@ frame_needed = 0, uses_anonymous_args = 0
ARM GAS  /tmp/ccJjbwbP.s 			page 89


1037:Drivers/STM32F4xx_HAL_Driver/Src/stm32f4xx_hal_hcd.c ****   (void)USB_StopHost(hhcd->Instance);
 2652              		.loc 1 1037 3 view .LVU818
1037:Drivers/STM32F4xx_HAL_Driver/Src/stm32f4xx_hal_hcd.c ****   (void)USB_StopHost(hhcd->Instance);
 2653              		.loc 1 1037 3 view .LVU819
 2654 0000 90F8B832 		ldrb	r3, [r0, #696]	@ zero_extendqisi2
 2655 0004 012B     		cmp	r3, #1
 2656 0006 0BD0     		beq	.L175
1036:Drivers/STM32F4xx_HAL_Driver/Src/stm32f4xx_hal_hcd.c ****   __HAL_LOCK(hhcd);
 2657              		.loc 1 1036 1 is_stmt 0 discriminator 2 view .LVU820
 2658 0008 10B5     		push	{r4, lr}
 2659              	.LCFI23:
 2660              		.cfi_def_cfa_offset 8
 2661              		.cfi_offset 4, -8
 2662              		.cfi_offset 14, -4
 2663 000a 0446     		mov	r4, r0
1037:Drivers/STM32F4xx_HAL_Driver/Src/stm32f4xx_hal_hcd.c ****   (void)USB_StopHost(hhcd->Instance);
 2664              		.loc 1 1037 3 is_stmt 1 discriminator 2 view .LVU821
 2665 000c 0123     		movs	r3, #1
 2666 000e 80F8B832 		strb	r3, [r0, #696]
1037:Drivers/STM32F4xx_HAL_Driver/Src/stm32f4xx_hal_hcd.c ****   (void)USB_StopHost(hhcd->Instance);
 2667              		.loc 1 1037 3 discriminator 2 view .LVU822
1038:Drivers/STM32F4xx_HAL_Driver/Src/stm32f4xx_hal_hcd.c ****   __HAL_UNLOCK(hhcd);
 2668              		.loc 1 1038 3 discriminator 2 view .LVU823
1038:Drivers/STM32F4xx_HAL_Driver/Src/stm32f4xx_hal_hcd.c ****   __HAL_UNLOCK(hhcd);
 2669              		.loc 1 1038 9 is_stmt 0 discriminator 2 view .LVU824
 2670 0012 0068     		ldr	r0, [r0]
 2671              	.LVL215:
1038:Drivers/STM32F4xx_HAL_Driver/Src/stm32f4xx_hal_hcd.c ****   __HAL_UNLOCK(hhcd);
 2672              		.loc 1 1038 9 discriminator 2 view .LVU825
 2673 0014 FFF7FEFF 		bl	USB_StopHost
 2674              	.LVL216:
1039:Drivers/STM32F4xx_HAL_Driver/Src/stm32f4xx_hal_hcd.c **** 
 2675              		.loc 1 1039 3 is_stmt 1 discriminator 2 view .LVU826
1039:Drivers/STM32F4xx_HAL_Driver/Src/stm32f4xx_hal_hcd.c **** 
 2676              		.loc 1 1039 3 discriminator 2 view .LVU827
 2677 0018 0020     		movs	r0, #0
 2678 001a 84F8B802 		strb	r0, [r4, #696]
1039:Drivers/STM32F4xx_HAL_Driver/Src/stm32f4xx_hal_hcd.c **** 
 2679              		.loc 1 1039 3 discriminator 2 view .LVU828
1041:Drivers/STM32F4xx_HAL_Driver/Src/stm32f4xx_hal_hcd.c **** }
 2680              		.loc 1 1041 3 discriminator 2 view .LVU829
1042:Drivers/STM32F4xx_HAL_Driver/Src/stm32f4xx_hal_hcd.c **** 
 2681              		.loc 1 1042 1 is_stmt 0 discriminator 2 view .LVU830
 2682 001e 10BD     		pop	{r4, pc}
 2683              	.LVL217:
 2684              	.L175:
 2685              	.LCFI24:
 2686              		.cfi_def_cfa_offset 0
 2687              		.cfi_restore 4
 2688              		.cfi_restore 14
1037:Drivers/STM32F4xx_HAL_Driver/Src/stm32f4xx_hal_hcd.c ****   (void)USB_StopHost(hhcd->Instance);
 2689              		.loc 1 1037 3 view .LVU831
 2690 0020 0220     		movs	r0, #2
 2691              	.LVL218:
1042:Drivers/STM32F4xx_HAL_Driver/Src/stm32f4xx_hal_hcd.c **** 
 2692              		.loc 1 1042 1 view .LVU832
 2693 0022 7047     		bx	lr
ARM GAS  /tmp/ccJjbwbP.s 			page 90


 2694              		.cfi_endproc
 2695              	.LFE146:
 2697              		.section	.text.HAL_HCD_ResetPort,"ax",%progbits
 2698              		.align	1
 2699              		.global	HAL_HCD_ResetPort
 2700              		.syntax unified
 2701              		.thumb
 2702              		.thumb_func
 2703              		.fpu fpv4-sp-d16
 2705              	HAL_HCD_ResetPort:
 2706              	.LVL219:
 2707              	.LFB147:
1050:Drivers/STM32F4xx_HAL_Driver/Src/stm32f4xx_hal_hcd.c ****   return (USB_ResetPort(hhcd->Instance));
 2708              		.loc 1 1050 1 is_stmt 1 view -0
 2709              		.cfi_startproc
 2710              		@ args = 0, pretend = 0, frame = 0
 2711              		@ frame_needed = 0, uses_anonymous_args = 0
1050:Drivers/STM32F4xx_HAL_Driver/Src/stm32f4xx_hal_hcd.c ****   return (USB_ResetPort(hhcd->Instance));
 2712              		.loc 1 1050 1 is_stmt 0 view .LVU834
 2713 0000 08B5     		push	{r3, lr}
 2714              	.LCFI25:
 2715              		.cfi_def_cfa_offset 8
 2716              		.cfi_offset 3, -8
 2717              		.cfi_offset 14, -4
1051:Drivers/STM32F4xx_HAL_Driver/Src/stm32f4xx_hal_hcd.c **** }
 2718              		.loc 1 1051 3 is_stmt 1 view .LVU835
1051:Drivers/STM32F4xx_HAL_Driver/Src/stm32f4xx_hal_hcd.c **** }
 2719              		.loc 1 1051 11 is_stmt 0 view .LVU836
 2720 0002 0068     		ldr	r0, [r0]
 2721              	.LVL220:
1051:Drivers/STM32F4xx_HAL_Driver/Src/stm32f4xx_hal_hcd.c **** }
 2722              		.loc 1 1051 11 view .LVU837
 2723 0004 FFF7FEFF 		bl	USB_ResetPort
 2724              	.LVL221:
1052:Drivers/STM32F4xx_HAL_Driver/Src/stm32f4xx_hal_hcd.c **** 
 2725              		.loc 1 1052 1 view .LVU838
 2726 0008 08BD     		pop	{r3, pc}
 2727              		.cfi_endproc
 2728              	.LFE147:
 2730              		.section	.text.HAL_HCD_GetState,"ax",%progbits
 2731              		.align	1
 2732              		.global	HAL_HCD_GetState
 2733              		.syntax unified
 2734              		.thumb
 2735              		.thumb_func
 2736              		.fpu fpv4-sp-d16
 2738              	HAL_HCD_GetState:
 2739              	.LVL222:
 2740              	.LFB148:
1079:Drivers/STM32F4xx_HAL_Driver/Src/stm32f4xx_hal_hcd.c ****   return hhcd->State;
 2741              		.loc 1 1079 1 is_stmt 1 view -0
 2742              		.cfi_startproc
 2743              		@ args = 0, pretend = 0, frame = 0
 2744              		@ frame_needed = 0, uses_anonymous_args = 0
 2745              		@ link register save eliminated.
1080:Drivers/STM32F4xx_HAL_Driver/Src/stm32f4xx_hal_hcd.c **** }
 2746              		.loc 1 1080 3 view .LVU840
ARM GAS  /tmp/ccJjbwbP.s 			page 91


1080:Drivers/STM32F4xx_HAL_Driver/Src/stm32f4xx_hal_hcd.c **** }
 2747              		.loc 1 1080 14 is_stmt 0 view .LVU841
 2748 0000 90F8B902 		ldrb	r0, [r0, #697]	@ zero_extendqisi2
 2749              	.LVL223:
1081:Drivers/STM32F4xx_HAL_Driver/Src/stm32f4xx_hal_hcd.c **** 
 2750              		.loc 1 1081 1 view .LVU842
 2751 0004 7047     		bx	lr
 2752              		.cfi_endproc
 2753              	.LFE148:
 2755              		.section	.text.HAL_HCD_HC_GetURBState,"ax",%progbits
 2756              		.align	1
 2757              		.global	HAL_HCD_HC_GetURBState
 2758              		.syntax unified
 2759              		.thumb
 2760              		.thumb_func
 2761              		.fpu fpv4-sp-d16
 2763              	HAL_HCD_HC_GetURBState:
 2764              	.LVL224:
 2765              	.LFB149:
1098:Drivers/STM32F4xx_HAL_Driver/Src/stm32f4xx_hal_hcd.c ****   return hhcd->hc[chnum].urb_state;
 2766              		.loc 1 1098 1 is_stmt 1 view -0
 2767              		.cfi_startproc
 2768              		@ args = 0, pretend = 0, frame = 0
 2769              		@ frame_needed = 0, uses_anonymous_args = 0
 2770              		@ link register save eliminated.
1099:Drivers/STM32F4xx_HAL_Driver/Src/stm32f4xx_hal_hcd.c **** }
 2771              		.loc 1 1099 3 view .LVU844
1099:Drivers/STM32F4xx_HAL_Driver/Src/stm32f4xx_hal_hcd.c **** }
 2772              		.loc 1 1099 25 is_stmt 0 view .LVU845
 2773 0000 01EB8101 		add	r1, r1, r1, lsl #2
 2774              	.LVL225:
1099:Drivers/STM32F4xx_HAL_Driver/Src/stm32f4xx_hal_hcd.c **** }
 2775              		.loc 1 1099 25 view .LVU846
 2776 0004 00EBC101 		add	r1, r0, r1, lsl #3
1100:Drivers/STM32F4xx_HAL_Driver/Src/stm32f4xx_hal_hcd.c **** 
 2777              		.loc 1 1100 1 view .LVU847
 2778 0008 91F85C00 		ldrb	r0, [r1, #92]	@ zero_extendqisi2
 2779              	.LVL226:
1100:Drivers/STM32F4xx_HAL_Driver/Src/stm32f4xx_hal_hcd.c **** 
 2780              		.loc 1 1100 1 view .LVU848
 2781 000c 7047     		bx	lr
 2782              		.cfi_endproc
 2783              	.LFE149:
 2785              		.section	.text.HAL_HCD_HC_GetXferCount,"ax",%progbits
 2786              		.align	1
 2787              		.global	HAL_HCD_HC_GetXferCount
 2788              		.syntax unified
 2789              		.thumb
 2790              		.thumb_func
 2791              		.fpu fpv4-sp-d16
 2793              	HAL_HCD_HC_GetXferCount:
 2794              	.LVL227:
 2795              	.LFB150:
1111:Drivers/STM32F4xx_HAL_Driver/Src/stm32f4xx_hal_hcd.c ****   return hhcd->hc[chnum].xfer_count;
 2796              		.loc 1 1111 1 is_stmt 1 view -0
 2797              		.cfi_startproc
 2798              		@ args = 0, pretend = 0, frame = 0
ARM GAS  /tmp/ccJjbwbP.s 			page 92


 2799              		@ frame_needed = 0, uses_anonymous_args = 0
 2800              		@ link register save eliminated.
1112:Drivers/STM32F4xx_HAL_Driver/Src/stm32f4xx_hal_hcd.c **** }
 2801              		.loc 1 1112 3 view .LVU850
1112:Drivers/STM32F4xx_HAL_Driver/Src/stm32f4xx_hal_hcd.c **** }
 2802              		.loc 1 1112 25 is_stmt 0 view .LVU851
 2803 0000 01EB8101 		add	r1, r1, r1, lsl #2
 2804              	.LVL228:
1112:Drivers/STM32F4xx_HAL_Driver/Src/stm32f4xx_hal_hcd.c **** }
 2805              		.loc 1 1112 25 view .LVU852
 2806 0004 00EBC101 		add	r1, r0, r1, lsl #3
1113:Drivers/STM32F4xx_HAL_Driver/Src/stm32f4xx_hal_hcd.c **** 
 2807              		.loc 1 1113 1 view .LVU853
 2808 0008 C86C     		ldr	r0, [r1, #76]
 2809              	.LVL229:
1113:Drivers/STM32F4xx_HAL_Driver/Src/stm32f4xx_hal_hcd.c **** 
 2810              		.loc 1 1113 1 view .LVU854
 2811 000a 7047     		bx	lr
 2812              		.cfi_endproc
 2813              	.LFE150:
 2815              		.section	.text.HAL_HCD_HC_GetState,"ax",%progbits
 2816              		.align	1
 2817              		.global	HAL_HCD_HC_GetState
 2818              		.syntax unified
 2819              		.thumb
 2820              		.thumb_func
 2821              		.fpu fpv4-sp-d16
 2823              	HAL_HCD_HC_GetState:
 2824              	.LVL230:
 2825              	.LFB151:
1133:Drivers/STM32F4xx_HAL_Driver/Src/stm32f4xx_hal_hcd.c ****   return hhcd->hc[chnum].state;
 2826              		.loc 1 1133 1 is_stmt 1 view -0
 2827              		.cfi_startproc
 2828              		@ args = 0, pretend = 0, frame = 0
 2829              		@ frame_needed = 0, uses_anonymous_args = 0
 2830              		@ link register save eliminated.
1134:Drivers/STM32F4xx_HAL_Driver/Src/stm32f4xx_hal_hcd.c **** }
 2831              		.loc 1 1134 3 view .LVU856
1134:Drivers/STM32F4xx_HAL_Driver/Src/stm32f4xx_hal_hcd.c **** }
 2832              		.loc 1 1134 25 is_stmt 0 view .LVU857
 2833 0000 01EB8101 		add	r1, r1, r1, lsl #2
 2834              	.LVL231:
1134:Drivers/STM32F4xx_HAL_Driver/Src/stm32f4xx_hal_hcd.c **** }
 2835              		.loc 1 1134 25 view .LVU858
 2836 0004 00EBC101 		add	r1, r0, r1, lsl #3
1135:Drivers/STM32F4xx_HAL_Driver/Src/stm32f4xx_hal_hcd.c **** 
 2837              		.loc 1 1135 1 view .LVU859
 2838 0008 91F85D00 		ldrb	r0, [r1, #93]	@ zero_extendqisi2
 2839              	.LVL232:
1135:Drivers/STM32F4xx_HAL_Driver/Src/stm32f4xx_hal_hcd.c **** 
 2840              		.loc 1 1135 1 view .LVU860
 2841 000c 7047     		bx	lr
 2842              		.cfi_endproc
 2843              	.LFE151:
 2845              		.section	.text.HAL_HCD_GetCurrentFrame,"ax",%progbits
 2846              		.align	1
 2847              		.global	HAL_HCD_GetCurrentFrame
ARM GAS  /tmp/ccJjbwbP.s 			page 93


 2848              		.syntax unified
 2849              		.thumb
 2850              		.thumb_func
 2851              		.fpu fpv4-sp-d16
 2853              	HAL_HCD_GetCurrentFrame:
 2854              	.LVL233:
 2855              	.LFB152:
1143:Drivers/STM32F4xx_HAL_Driver/Src/stm32f4xx_hal_hcd.c ****   return (USB_GetCurrentFrame(hhcd->Instance));
 2856              		.loc 1 1143 1 is_stmt 1 view -0
 2857              		.cfi_startproc
 2858              		@ args = 0, pretend = 0, frame = 0
 2859              		@ frame_needed = 0, uses_anonymous_args = 0
1143:Drivers/STM32F4xx_HAL_Driver/Src/stm32f4xx_hal_hcd.c ****   return (USB_GetCurrentFrame(hhcd->Instance));
 2860              		.loc 1 1143 1 is_stmt 0 view .LVU862
 2861 0000 08B5     		push	{r3, lr}
 2862              	.LCFI26:
 2863              		.cfi_def_cfa_offset 8
 2864              		.cfi_offset 3, -8
 2865              		.cfi_offset 14, -4
1144:Drivers/STM32F4xx_HAL_Driver/Src/stm32f4xx_hal_hcd.c **** }
 2866              		.loc 1 1144 3 is_stmt 1 view .LVU863
1144:Drivers/STM32F4xx_HAL_Driver/Src/stm32f4xx_hal_hcd.c **** }
 2867              		.loc 1 1144 11 is_stmt 0 view .LVU864
 2868 0002 0068     		ldr	r0, [r0]
 2869              	.LVL234:
1144:Drivers/STM32F4xx_HAL_Driver/Src/stm32f4xx_hal_hcd.c **** }
 2870              		.loc 1 1144 11 view .LVU865
 2871 0004 FFF7FEFF 		bl	USB_GetCurrentFrame
 2872              	.LVL235:
1145:Drivers/STM32F4xx_HAL_Driver/Src/stm32f4xx_hal_hcd.c **** 
 2873              		.loc 1 1145 1 view .LVU866
 2874 0008 08BD     		pop	{r3, pc}
 2875              		.cfi_endproc
 2876              	.LFE152:
 2878              		.section	.text.HAL_HCD_GetCurrentSpeed,"ax",%progbits
 2879              		.align	1
 2880              		.global	HAL_HCD_GetCurrentSpeed
 2881              		.syntax unified
 2882              		.thumb
 2883              		.thumb_func
 2884              		.fpu fpv4-sp-d16
 2886              	HAL_HCD_GetCurrentSpeed:
 2887              	.LVL236:
 2888              	.LFB153:
1153:Drivers/STM32F4xx_HAL_Driver/Src/stm32f4xx_hal_hcd.c ****   return (USB_GetHostSpeed(hhcd->Instance));
 2889              		.loc 1 1153 1 is_stmt 1 view -0
 2890              		.cfi_startproc
 2891              		@ args = 0, pretend = 0, frame = 0
 2892              		@ frame_needed = 0, uses_anonymous_args = 0
1153:Drivers/STM32F4xx_HAL_Driver/Src/stm32f4xx_hal_hcd.c ****   return (USB_GetHostSpeed(hhcd->Instance));
 2893              		.loc 1 1153 1 is_stmt 0 view .LVU868
 2894 0000 08B5     		push	{r3, lr}
 2895              	.LCFI27:
 2896              		.cfi_def_cfa_offset 8
 2897              		.cfi_offset 3, -8
 2898              		.cfi_offset 14, -4
1154:Drivers/STM32F4xx_HAL_Driver/Src/stm32f4xx_hal_hcd.c **** }
ARM GAS  /tmp/ccJjbwbP.s 			page 94


 2899              		.loc 1 1154 3 is_stmt 1 view .LVU869
1154:Drivers/STM32F4xx_HAL_Driver/Src/stm32f4xx_hal_hcd.c **** }
 2900              		.loc 1 1154 11 is_stmt 0 view .LVU870
 2901 0002 0068     		ldr	r0, [r0]
 2902              	.LVL237:
1154:Drivers/STM32F4xx_HAL_Driver/Src/stm32f4xx_hal_hcd.c **** }
 2903              		.loc 1 1154 11 view .LVU871
 2904 0004 FFF7FEFF 		bl	USB_GetHostSpeed
 2905              	.LVL238:
1155:Drivers/STM32F4xx_HAL_Driver/Src/stm32f4xx_hal_hcd.c **** 
 2906              		.loc 1 1155 1 view .LVU872
 2907 0008 08BD     		pop	{r3, pc}
 2908              		.cfi_endproc
 2909              	.LFE153:
 2911              		.text
 2912              	.Letext0:
 2913              		.file 2 "/usr/lib/gcc/arm-none-eabi/9.2.1/include/stdint.h"
 2914              		.file 3 "Drivers/CMSIS/Include/core_cm4.h"
 2915              		.file 4 "Drivers/CMSIS/Device/ST/STM32F4xx/Include/system_stm32f4xx.h"
 2916              		.file 5 "Drivers/CMSIS/Device/ST/STM32F4xx/Include/stm32f407xx.h"
 2917              		.file 6 "Drivers/STM32F4xx_HAL_Driver/Inc/stm32f4xx_hal_def.h"
 2918              		.file 7 "Drivers/STM32F4xx_HAL_Driver/Inc/stm32f4xx_ll_usb.h"
 2919              		.file 8 "Drivers/STM32F4xx_HAL_Driver/Inc/stm32f4xx_hal_hcd.h"
 2920              		.file 9 "Drivers/STM32F4xx_HAL_Driver/Inc/stm32f4xx_hal.h"
ARM GAS  /tmp/ccJjbwbP.s 			page 95


DEFINED SYMBOLS
                            *ABS*:0000000000000000 stm32f4xx_hal_hcd.c
     /tmp/ccJjbwbP.s:18     .text.HCD_RXQLVL_IRQHandler:0000000000000000 $t
     /tmp/ccJjbwbP.s:25     .text.HCD_RXQLVL_IRQHandler:0000000000000000 HCD_RXQLVL_IRQHandler
     /tmp/ccJjbwbP.s:155    .text.HCD_RXQLVL_IRQHandler:0000000000000080 $d
     /tmp/ccJjbwbP.s:160    .text.HAL_HCD_HC_Init:0000000000000000 $t
     /tmp/ccJjbwbP.s:167    .text.HAL_HCD_HC_Init:0000000000000000 HAL_HCD_HC_Init
     /tmp/ccJjbwbP.s:283    .text.HAL_HCD_HC_Halt:0000000000000000 $t
     /tmp/ccJjbwbP.s:290    .text.HAL_HCD_HC_Halt:0000000000000000 HAL_HCD_HC_Halt
     /tmp/ccJjbwbP.s:344    .text.HAL_HCD_MspInit:0000000000000000 $t
     /tmp/ccJjbwbP.s:351    .text.HAL_HCD_MspInit:0000000000000000 HAL_HCD_MspInit
     /tmp/ccJjbwbP.s:366    .text.HAL_HCD_Init:0000000000000000 $t
     /tmp/ccJjbwbP.s:373    .text.HAL_HCD_Init:0000000000000000 HAL_HCD_Init
     /tmp/ccJjbwbP.s:515    .text.HAL_HCD_MspDeInit:0000000000000000 $t
     /tmp/ccJjbwbP.s:522    .text.HAL_HCD_MspDeInit:0000000000000000 HAL_HCD_MspDeInit
     /tmp/ccJjbwbP.s:537    .text.HAL_HCD_DeInit:0000000000000000 $t
     /tmp/ccJjbwbP.s:544    .text.HAL_HCD_DeInit:0000000000000000 HAL_HCD_DeInit
     /tmp/ccJjbwbP.s:594    .text.HAL_HCD_HC_SubmitRequest:0000000000000000 $t
     /tmp/ccJjbwbP.s:601    .text.HAL_HCD_HC_SubmitRequest:0000000000000000 HAL_HCD_HC_SubmitRequest
     /tmp/ccJjbwbP.s:647    .text.HAL_HCD_HC_SubmitRequest:000000000000003c $d
     /tmp/ccJjbwbP.s:651    .text.HAL_HCD_HC_SubmitRequest:0000000000000040 $t
     /tmp/ccJjbwbP.s:884    .text.HAL_HCD_WKUP_IRQHandler:0000000000000000 $t
     /tmp/ccJjbwbP.s:891    .text.HAL_HCD_WKUP_IRQHandler:0000000000000000 HAL_HCD_WKUP_IRQHandler
     /tmp/ccJjbwbP.s:906    .text.HAL_HCD_SOF_Callback:0000000000000000 $t
     /tmp/ccJjbwbP.s:913    .text.HAL_HCD_SOF_Callback:0000000000000000 HAL_HCD_SOF_Callback
     /tmp/ccJjbwbP.s:928    .text.HAL_HCD_Connect_Callback:0000000000000000 $t
     /tmp/ccJjbwbP.s:935    .text.HAL_HCD_Connect_Callback:0000000000000000 HAL_HCD_Connect_Callback
     /tmp/ccJjbwbP.s:950    .text.HAL_HCD_Disconnect_Callback:0000000000000000 $t
     /tmp/ccJjbwbP.s:957    .text.HAL_HCD_Disconnect_Callback:0000000000000000 HAL_HCD_Disconnect_Callback
     /tmp/ccJjbwbP.s:972    .text.HAL_HCD_PortEnabled_Callback:0000000000000000 $t
     /tmp/ccJjbwbP.s:979    .text.HAL_HCD_PortEnabled_Callback:0000000000000000 HAL_HCD_PortEnabled_Callback
     /tmp/ccJjbwbP.s:994    .text.HAL_HCD_PortDisabled_Callback:0000000000000000 $t
     /tmp/ccJjbwbP.s:1001   .text.HAL_HCD_PortDisabled_Callback:0000000000000000 HAL_HCD_PortDisabled_Callback
     /tmp/ccJjbwbP.s:1016   .text.HCD_Port_IRQHandler:0000000000000000 $t
     /tmp/ccJjbwbP.s:1022   .text.HCD_Port_IRQHandler:0000000000000000 HCD_Port_IRQHandler
     /tmp/ccJjbwbP.s:1187   .text.HAL_HCD_HC_NotifyURBChange_Callback:0000000000000000 $t
     /tmp/ccJjbwbP.s:1194   .text.HAL_HCD_HC_NotifyURBChange_Callback:0000000000000000 HAL_HCD_HC_NotifyURBChange_Callback
     /tmp/ccJjbwbP.s:1211   .text.HCD_HC_IN_IRQHandler:0000000000000000 $t
     /tmp/ccJjbwbP.s:1217   .text.HCD_HC_IN_IRQHandler:0000000000000000 HCD_HC_IN_IRQHandler
     /tmp/ccJjbwbP.s:1781   .text.HCD_HC_OUT_IRQHandler:0000000000000000 $t
     /tmp/ccJjbwbP.s:1787   .text.HCD_HC_OUT_IRQHandler:0000000000000000 HCD_HC_OUT_IRQHandler
     /tmp/ccJjbwbP.s:2306   .text.HAL_HCD_IRQHandler:0000000000000000 $t
     /tmp/ccJjbwbP.s:2313   .text.HAL_HCD_IRQHandler:0000000000000000 HAL_HCD_IRQHandler
     /tmp/ccJjbwbP.s:2573   .text.HAL_HCD_Start:0000000000000000 $t
     /tmp/ccJjbwbP.s:2580   .text.HAL_HCD_Start:0000000000000000 HAL_HCD_Start
     /tmp/ccJjbwbP.s:2638   .text.HAL_HCD_Stop:0000000000000000 $t
     /tmp/ccJjbwbP.s:2645   .text.HAL_HCD_Stop:0000000000000000 HAL_HCD_Stop
     /tmp/ccJjbwbP.s:2698   .text.HAL_HCD_ResetPort:0000000000000000 $t
     /tmp/ccJjbwbP.s:2705   .text.HAL_HCD_ResetPort:0000000000000000 HAL_HCD_ResetPort
     /tmp/ccJjbwbP.s:2731   .text.HAL_HCD_GetState:0000000000000000 $t
     /tmp/ccJjbwbP.s:2738   .text.HAL_HCD_GetState:0000000000000000 HAL_HCD_GetState
     /tmp/ccJjbwbP.s:2756   .text.HAL_HCD_HC_GetURBState:0000000000000000 $t
     /tmp/ccJjbwbP.s:2763   .text.HAL_HCD_HC_GetURBState:0000000000000000 HAL_HCD_HC_GetURBState
     /tmp/ccJjbwbP.s:2786   .text.HAL_HCD_HC_GetXferCount:0000000000000000 $t
     /tmp/ccJjbwbP.s:2793   .text.HAL_HCD_HC_GetXferCount:0000000000000000 HAL_HCD_HC_GetXferCount
     /tmp/ccJjbwbP.s:2816   .text.HAL_HCD_HC_GetState:0000000000000000 $t
     /tmp/ccJjbwbP.s:2823   .text.HAL_HCD_HC_GetState:0000000000000000 HAL_HCD_HC_GetState
ARM GAS  /tmp/ccJjbwbP.s 			page 96


     /tmp/ccJjbwbP.s:2846   .text.HAL_HCD_GetCurrentFrame:0000000000000000 $t
     /tmp/ccJjbwbP.s:2853   .text.HAL_HCD_GetCurrentFrame:0000000000000000 HAL_HCD_GetCurrentFrame
     /tmp/ccJjbwbP.s:2879   .text.HAL_HCD_GetCurrentSpeed:0000000000000000 $t
     /tmp/ccJjbwbP.s:2886   .text.HAL_HCD_GetCurrentSpeed:0000000000000000 HAL_HCD_GetCurrentSpeed

UNDEFINED SYMBOLS
USB_ReadPacket
USB_HC_Init
USB_HC_Halt
USB_DisableGlobalInt
USB_CoreInit
USB_SetCurrentMode
USB_HostInit
USB_HC_StartXfer
USB_InitFSLSPClkSel
USB_GetMode
USB_ReadInterrupts
USB_HC_ReadInterrupt
USB_EnableGlobalInt
USB_DriveVbus
USB_StopHost
USB_ResetPort
USB_GetCurrentFrame
USB_GetHostSpeed
